(dp1
S'output'
p2
S"<class 'socket.gaierror'> [Errno 8] nodename nor servname provided, or not known"
p3
sS'layer'
p4
S'/Users/JoaoBtte/Documents/python/Hello/applications/Cifra/controllers/default.py'
p5
sS'code'
p6
S'def user():\n    return dict(form=auth())\n\ndef index():\n    import cifra_club\n\n    form = SQLFORM.factory(Field(\'url\',\n                                 label=T(\'Insert the URL \'),\n                                 requires=IS_MATCH(\'http://www.cifraclub.com.br/\', error_message=\'Desculpa, por enquanto, so Cifra Club\')))\n\n    if form.process().accepted:\n\n        cifra = cifra_club.get_song(form.vars.url)\n        ## cifra[0] = name; cifra[1] = nome_musica; cifra[2] = letra\n        session.name = cifra[0].title().split("-")[0]\n        session.banda = cifra[0].split("-")[1]\n        session.nome_musica = cifra[1]\n        session.letra = cifra[2].strip()\n        redirect(URL(\'cifra\'))\n    return dict(form=form)\n\n\ndef cifra():\n    response.title = "Minhas Cifras"\n    response.subtitles = session.name+"-"+session.banda\n    return dict()\n\ndef evernote():\n    import evernote_song\n    evernote_song.evernote_song(session.name, session.banda, session.letra)\n    response.flash=\'Gravado no Evernote!\'\n    #redirect(URL(\'ever\'))\n    return ("")\n\ndef ever():\n    import evernote_song\n    evernote_song.evernote_song(session.name, session.banda, session.letra)\n    response.flash=\'Gravado no Evernote!\'\n    return("Good Job!")\n\n\ndef get_me_a_pdf():\n\n    from gluon.reportlab.platypus import *\n    from gluon.reportlab.lib.styles import getSampleStyleSheet\n    from gluon.reportlab.rl_config import defaultPageSize\n    from gluon.reportlab.lib.units import inch, mm\n    from gluon.reportlab.lib.enums import TA_LEFT, TA_RIGHT, TA_CENTER, TA_JUSTIFY\n    from gluon.reportlab.lib import colors\n    from uuid import uuid4\n    from cgi import escape\n    import os\n\n    title = session.name.replace("\\r", "").replace("\\t", "")\n    heading = session.banda\n    text = session.letra\n\n\n    styles = getSampleStyleSheet()\n    tmpfilename=os.path.join(request.folder,\'private\',str(uuid4()))\n    doc = SimpleDocTemplate(tmpfilename)\n    story = []\n    story.append(Paragraph(escape(title),styles["Heading1"]))\n    story.append(Paragraph(escape(heading),styles["Heading3"]))\n    story.append(Preformatted(escape(text), styles["Normal"]))\n    story.append(Spacer(1,2*inch))\n    doc.build(story)\n    data = open(tmpfilename,"rb").read()\n    os.unlink(tmpfilename)\n    response.headers[\'Content-Type\']=\'application/pdf\'\n    return data\n\nresponse._vars=response._caller(evernote)\n'
p7
sS'snapshot'
p8
(dp9
S'exception'
p10
(dp11
S'__module__'
p12
S"'socket'"
p13
sS'__getslice__'
p14
S"<method-wrapper '__getslice__' of gaierror object>"
p15
sS'__str__'
p16
S"<method-wrapper '__str__' of gaierror object>"
p17
sS'__reduce__'
p18
S'<built-in method __reduce__ of gaierror object>'
p19
sS'__dict__'
p20
S'{}'
p21
sS'__sizeof__'
p22
S'<built-in method __sizeof__ of gaierror object>'
p23
sS'__weakref__'
p24
S'None'
p25
sS'__init__'
p26
S"<method-wrapper '__init__' of gaierror object>"
p27
sS'__setattr__'
p28
S"<method-wrapper '__setattr__' of gaierror object>"
p29
sS'__reduce_ex__'
p30
S'<built-in method __reduce_ex__ of gaierror object>'
p31
sS'__new__'
p32
S'<built-in method __new__ of type object>'
p33
sS'errno'
p34
S'8'
sS'__format__'
p35
S'<built-in method __format__ of gaierror object>'
p36
sS'__class__'
p37
S"<class 'socket.gaierror'>"
p38
sS'filename'
p39
S'None'
p40
sS'__doc__'
p41
S'None'
p42
sS'__getitem__'
p43
S"<method-wrapper '__getitem__' of gaierror object>"
p44
sS'__setstate__'
p45
S'<built-in method __setstate__ of gaierror object>'
p46
sS'__getattribute__'
p47
S"<method-wrapper '__getattribute__' of gaierror object>"
p48
sS'args'
p49
S"(8, 'nodename nor servname provided, or not known')"
p50
sS'__subclasshook__'
p51
S'<built-in method __subclasshook__ of type object>'
p52
sS'__unicode__'
p53
S'<built-in method __unicode__ of gaierror object>'
p54
sS'strerror'
p55
S"'nodename nor servname provided, or not known'"
p56
sS'__delattr__'
p57
S"<method-wrapper '__delattr__' of gaierror object>"
p58
sS'__repr__'
p59
S"<method-wrapper '__repr__' of gaierror object>"
p60
sS'__hash__'
p61
S"<method-wrapper '__hash__' of gaierror object>"
p62
ssS'evalue'
p63
S'[Errno 8] nodename nor servname provided, or not known'
p64
sS'request'
p65
cgluon.html
XML_unpickle
p66
(S's\x85a\x00\x00<div><table><tr><td style="font-weight:bold;vertical-align:top;">ajax</td><td style="vertical-align:top;">:</td><td><div>False</div></td></tr><tr><td style="font-weight:bold;vertical-align:top;">application</td><td style="vertical-align:top;">:</td><td><div>Cifra</div></td></tr><tr><td style="font-weight:bold;vertical-align:top;">args</td><td style="vertical-align:top;">:</td><td><div><table></table></div></td></tr><tr><td style="font-weight:bold;vertical-align:top;">cid</td><td style="vertical-align:top;">:</td><td><div>None</div></td></tr><tr><td style="font-weight:bold;vertical-align:top;">client</td><td style="vertical-align:top;">:</td><td><div>127.0.0.1</div></td></tr><tr><td style="font-weight:bold;vertical-align:top;">controller</td><td style="vertical-align:top;">:</td><td><div>default</div></td></tr><tr><td style="font-weight:bold;vertical-align:top;">cookies</td><td style="vertical-align:top;">:</td><td><div><table><tr><td style="font-weight:bold;vertical-align:top;">session_id_admin</td><td style="vertical-align:top;">:</td><td><div>127.0.0.1-8723daa2-7da3-4563-ac53-edd818264c7e<table><tr><td style="font-weight:bold;vertical-align:top;">comment</td><td style="vertical-align:top;">:</td><td><div></div></td></tr><tr><td style="font-weight:bold;vertical-align:top;">domain</td><td style="vertical-align:top;">:</td><td><div></div></td></tr><tr><td style="font-weight:bold;vertical-align:top;">expires</td><td style="vertical-align:top;">:</td><td><div></div></td></tr><tr><td style="font-weight:bold;vertical-align:top;">httponly</td><td style="vertical-align:top;">:</td><td><div></div></td></tr><tr><td style="font-weight:bold;vertical-align:top;">max-age</td><td style="vertical-align:top;">:</td><td><div></div></td></tr><tr><td style="font-weight:bold;vertical-align:top;">path</td><td style="vertical-align:top;">:</td><td><div></div></td></tr><tr><td style="font-weight:bold;vertical-align:top;">secure</td><td style="vertical-align:top;">:</td><td><div></div></td></tr><tr><td style="font-weight:bold;vertical-align:top;">version</td><td style="vertical-align:top;">:</td><td><div></div></td></tr></table></div></td></tr><tr><td style="font-weight:bold;vertical-align:top;">session_id_cifra</td><td style="vertical-align:top;">:</td><td><div>127.0.0.1-0c507f6e-3f44-4727-856c-722dd7d36f08<table><tr><td style="font-weight:bold;vertical-align:top;">comment</td><td style="vertical-align:top;">:</td><td><div></div></td></tr><tr><td style="font-weight:bold;vertical-align:top;">domain</td><td style="vertical-align:top;">:</td><td><div></div></td></tr><tr><td style="font-weight:bold;vertical-align:top;">expires</td><td style="vertical-align:top;">:</td><td><div></div></td></tr><tr><td style="font-weight:bold;vertical-align:top;">httponly</td><td style="vertical-align:top;">:</td><td><div></div></td></tr><tr><td style="font-weight:bold;vertical-align:top;">max-age</td><td style="vertical-align:top;">:</td><td><div></div></td></tr><tr><td style="font-weight:bold;vertical-align:top;">path</td><td style="vertical-align:top;">:</td><td><div></div></td></tr><tr><td style="font-weight:bold;vertical-align:top;">secure</td><td style="vertical-align:top;">:</td><td><div></div></td></tr><tr><td style="font-weight:bold;vertical-align:top;">version</td><td style="vertical-align:top;">:</td><td><div></div></td></tr></table></div></td></tr><tr><td style="font-weight:bold;vertical-align:top;">session_id_myapp</td><td style="vertical-align:top;">:</td><td><div>127.0.0.1-bb9a744f-061e-4e8b-89df-da896bfad6b6<table><tr><td style="font-weight:bold;vertical-align:top;">comment</td><td style="vertical-align:top;">:</td><td><div></div></td></tr><tr><td style="font-weight:bold;vertical-align:top;">domain</td><td style="vertical-align:top;">:</td><td><div></div></td></tr><tr><td style="font-weight:bold;vertical-align:top;">expires</td><td style="vertical-align:top;">:</td><td><div></div></td></tr><tr><td style="font-weight:bold;vertical-align:top;">httponly</td><td style="vertical-align:top;">:</td><td><div></div></td></tr><tr><td style="font-weight:bold;vertical-align:top;">max-age</td><td style="vertical-align:top;">:</td><td><div></div></td></tr><tr><td style="font-weight:bold;vertical-align:top;">path</td><td style="vertical-align:top;">:</td><td><div></div></td></tr><tr><td style="font-weight:bold;vertical-align:top;">secure</td><td style="vertical-align:top;">:</td><td><div></div></td></tr><tr><td style="font-weight:bold;vertical-align:top;">version</td><td style="vertical-align:top;">:</td><td><div></div></td></tr></table></div></td></tr><tr><td style="font-weight:bold;vertical-align:top;">session_id_welcome</td><td style="vertical-align:top;">:</td><td><div>127.0.0.1-0d4b4751-84dc-42c1-b698-ec4aa2199329<table><tr><td style="font-weight:bold;vertical-align:top;">comment</td><td style="vertical-align:top;">:</td><td><div></div></td></tr><tr><td style="font-weight:bold;vertical-align:top;">domain</td><td style="vertical-align:top;">:</td><td><div></div></td></tr><tr><td style="font-weight:bold;vertical-align:top;">expires</td><td style="vertical-align:top;">:</td><td><div></div></td></tr><tr><td style="font-weight:bold;vertical-align:top;">httponly</td><td style="vertical-align:top;">:</td><td><div></div></td></tr><tr><td style="font-weight:bold;vertical-align:top;">max-age</td><td style="vertical-align:top;">:</td><td><div></div></td></tr><tr><td style="font-weight:bold;vertical-align:top;">path</td><td style="vertical-align:top;">:</td><td><div></div></td></tr><tr><td style="font-weight:bold;vertical-align:top;">secure</td><td style="vertical-align:top;">:</td><td><div></div></td></tr><tr><td style="font-weight:bold;vertical-align:top;">version</td><td style="vertical-align:top;">:</td><td><div></div></td></tr></table></div></td></tr></table></div></td></tr><tr><td style="font-weight:bold;vertical-align:top;">env</td><td style="vertical-align:top;">:</td><td><div><table><tr><td style="font-weight:bold;vertical-align:top;">HTTP_ACCEPT</td><td style="vertical-align:top;">:</td><td><div>text/html,application/xhtml+xml,application/xml;q=0.9,*/*;q=0.8</div></td></tr><tr><td style="font-weight:bold;vertical-align:top;">HTTP_ACCEPT_ENCODING</td><td style="vertical-align:top;">:</td><td><div>gzip,deflate,sdch</div></td></tr><tr><td style="font-weight:bold;vertical-align:top;">HTTP_ACCEPT_LANGUAGE</td><td style="vertical-align:top;">:</td><td><div>pt-BR,pt;q=0.8,en-US;q=0.6,en;q=0.4</div></td></tr><tr><td style="font-weight:bold;vertical-align:top;">HTTP_CONNECTION</td><td style="vertical-align:top;">:</td><td><div>keep-alive</div></td></tr><tr><td style="font-weight:bold;vertical-align:top;">HTTP_COOKIE</td><td style="vertical-align:top;">:</td><td><div>session_id_myapp=127.0.0.1-bb9a744f-061e-4e8b-89df-da896bfad6b6; session_id_welcome=127.0.0.1-0d4b4751-84dc-42c1-b698-ec4aa2199329; session_id_admin=127.0.0.1-8723daa2-7da3-4563-ac53-edd818264c7e; session_id_cifra=127.0.0.1-0c507f6e-3f44-4727-856c-722dd7d36f08</div></td></tr><tr><td style="font-weight:bold;vertical-align:top;">HTTP_HOST</td><td style="vertical-align:top;">:</td><td><div>127.0.0.1:8000</div></td></tr><tr><td style="font-weight:bold;vertical-align:top;">HTTP_REFERER</td><td style="vertical-align:top;">:</td><td><div>http://127.0.0.1:8000/Cifra/default/cifra</div></td></tr><tr><td style="font-weight:bold;vertical-align:top;">HTTP_USER_AGENT</td><td style="vertical-align:top;">:</td><td><div>Mozilla/5.0 (Macintosh; Intel Mac OS X 10_8_5) AppleWebKit/537.36 (KHTML, like Gecko) Chrome/29.0.1547.76 Safari/537.36</div></td></tr><tr><td style="font-weight:bold;vertical-align:top;">PATH_INFO</td><td style="vertical-align:top;">:</td><td><div>/Cifra/default/evernote</div></td></tr><tr><td style="font-weight:bold;vertical-align:top;">QUERY_STRING</td><td style="vertical-align:top;">:</td><td><div></div></td></tr><tr><td style="font-weight:bold;vertical-align:top;">REMOTE_ADDR</td><td style="vertical-align:top;">:</td><td><div>127.0.0.1</div></td></tr><tr><td style="font-weight:bold;vertical-align:top;">REMOTE_PORT</td><td style="vertical-align:top;">:</td><td><div>51128</div></td></tr><tr><td style="font-weight:bold;vertical-align:top;">REQUEST_METHOD</td><td style="vertical-align:top;">:</td><td><div>GET</div></td></tr><tr><td style="font-weight:bold;vertical-align:top;">SCRIPT_NAME</td><td style="vertical-align:top;">:</td><td><div></div></td></tr><tr><td style="font-weight:bold;vertical-align:top;">SERVER_NAME</td><td style="vertical-align:top;">:</td><td><div>MacBook-Pro-de-Joao.local</div></td></tr><tr><td style="font-weight:bold;vertical-align:top;">SERVER_PORT</td><td style="vertical-align:top;">:</td><td><div>8000</div></td></tr><tr><td style="font-weight:bold;vertical-align:top;">SERVER_PROTOCOL</td><td style="vertical-align:top;">:</td><td><div>HTTP/1.1</div></td></tr><tr><td style="font-weight:bold;vertical-align:top;">SERVER_SOFTWARE</td><td style="vertical-align:top;">:</td><td><div>Rocket 1.2.6</div></td></tr><tr><td style="font-weight:bold;vertical-align:top;">app_folders</td><td style="vertical-align:top;">:</td><td><div>set([&#x27;/Users/JoaoBtte/Documents/python/Hello/applications/admin/&#x27;, &#x27;/Users/JoaoBtte/Documents/python/Hello/applications/welcome/&#x27;, &#x27;/Users/JoaoBtte/Documents/python/Hello/applications/Cifra/&#x27;])</div></td></tr><tr><td style="font-weight:bold;vertical-align:top;">applications_parent</td><td style="vertical-align:top;">:</td><td><div>/Users/JoaoBtte/Documents/python/Hello</div></td></tr><tr><td style="font-weight:bold;vertical-align:top;">cmd_args</td><td style="vertical-align:top;">:</td><td><div><table></table></div></td></tr><tr><td style="font-weight:bold;vertical-align:top;">cmd_options</td><td style="vertical-align:top;">:</td><td><div>&lt;Values at 0x1083d2830: {&#x27;verbose&#x27;: False, &#x27;ip&#x27;: &#x27;127.0.0.1&#x27;, &#x27;debuglevel&#x27;: 30, &#x27;with_scheduler&#x27;: False, &#x27;ips&#x27;: [&#x27;fe80::22c9:d0ff:fed9:645f%en1&#x27;, &#x27;192.168.1.4&#x27;], &#x27;shutdown_timeout&#x27;: 5, &#x27;taskbar&#x27;: False, &#x27;with_coverage&#x27;: False, &#x27;port&#x27;: 8000, &#x27;maxthreads&#x27;: None, &#x27;softcron&#x27;: False, &#x27;server_name&#x27;: &#x27;MacBook-Pro-de-Joao.local&#x27;, &#x27;bpython&#x27;: False, &#x27;nogui&#x27;: False, &#x27;pid_filename&#x27;: &#x27;httpserver.pid&#x27;, &#x27;extcron&#x27;: False, &#x27;runcron&#x27;: False, &#x27;run_system_tests&#x27;: False, &#x27;test&#x27;: None, &#x27;folder&#x27;: &#x27;/Users/JoaoBtte/Documents/python/Hello&#x27;, &#x27;config&#x27;: &#x27;&#x27;, &#x27;minthreads&#x27;: None, &#x27;winservice&#x27;: &#x27;&#x27;, &#x27;shell&#x27;: None, &#x27;run&#x27;: &#x27;&#x27;, &#x27;log_filename&#x27;: &#x27;httpserver.log&#x27;, &#x27;profiler_dir&#x27;: None, &#x27;args&#x27;: [&#x27;&#x27;], &#x27;socket_timeout&#x27;: 5, &#x27;ssl_ca_certificate&#x27;: None, &#x27;scheduler&#x27;: None, &#x27;interfaces&#x27;: None, &#x27;ssl_private_key&#x27;: &#x27;&#x27;, &#x27;scheduler_groups&#x27;: None, &#x27;password&#x27;: &#x27;&lt;ask&gt;&#x27;, &#x27;request_queue_size&#x27;: 5, &#x27;ssl_certificate&#x27;: &#x27;&#x27;, &#x27;cronjob&#x27;: False, &#x27;numthreads&#x27;: None, &#x27;quiet&#x27;: False, &#x27;import_models&#x27;: False, &#x27;timeout&#x27;: 10, &#x27;plain&#x27;: False, &#x27;nobanner&#x27;: False}&gt;</div></td></tr><tr><td style="font-weight:bold;vertical-align:top;">db_sessions</td><td style="vertical-align:top;">:</td><td><div>set([])</div></td></tr><tr><td style="font-weight:bold;vertical-align:top;">debugging</td><td style="vertical-align:top;">:</td><td><div>True</div></td></tr><tr><td style="font-weight:bold;vertical-align:top;">gluon_parent</td><td style="vertical-align:top;">:</td><td><div>/Users/JoaoBtte/Documents/python/Hello</div></td></tr><tr><td style="font-weight:bold;vertical-align:top;">http_accept</td><td style="vertical-align:top;">:</td><td><div>text/html,application/xhtml+xml,application/xml;q=0.9,*/*;q=0.8</div></td></tr><tr><td style="font-weight:bold;vertical-align:top;">http_accept_encoding</td><td style="vertical-align:top;">:</td><td><div>gzip,deflate,sdch</div></td></tr><tr><td style="font-weight:bold;vertical-align:top;">http_accept_language</td><td style="vertical-align:top;">:</td><td><div>pt-BR,pt;q=0.8,en-US;q=0.6,en;q=0.4</div></td></tr><tr><td style="font-weight:bold;vertical-align:top;">http_connection</td><td style="vertical-align:top;">:</td><td><div>keep-alive</div></td></tr><tr><td style="font-weight:bold;vertical-align:top;">http_cookie</td><td style="vertical-align:top;">:</td><td><div>session_id_myapp=127.0.0.1-bb9a744f-061e-4e8b-89df-da896bfad6b6; session_id_welcome=127.0.0.1-0d4b4751-84dc-42c1-b698-ec4aa2199329; session_id_admin=127.0.0.1-8723daa2-7da3-4563-ac53-edd818264c7e; session_id_cifra=127.0.0.1-0c507f6e-3f44-4727-856c-722dd7d36f08</div></td></tr><tr><td style="font-weight:bold;vertical-align:top;">http_host</td><td style="vertical-align:top;">:</td><td><div>127.0.0.1:8000</div></td></tr><tr><td style="font-weight:bold;vertical-align:top;">http_referer</td><td style="vertical-align:top;">:</td><td><div>http://127.0.0.1:8000/Cifra/default/cifra</div></td></tr><tr><td style="font-weight:bold;vertical-align:top;">http_user_agent</td><td style="vertical-align:top;">:</td><td><div>Mozilla/5.0 (Macintosh; Intel Mac OS X 10_8_5) AppleWebKit/537.36 (KHTML, like Gecko) Chrome/29.0.1547.76 Safari/537.36</div></td></tr><tr><td style="font-weight:bold;vertical-align:top;">is_jython</td><td style="vertical-align:top;">:</td><td><div>False</div></td></tr><tr><td style="font-weight:bold;vertical-align:top;">is_pypy</td><td style="vertical-align:top;">:</td><td><div>False</div></td></tr><tr><td style="font-weight:bold;vertical-align:top;">is_source</td><td style="vertical-align:top;">:</td><td><div>True</div></td></tr><tr><td style="font-weight:bold;vertical-align:top;">local_hosts</td><td style="vertical-align:top;">:</td><td><div><table><tr><td><div>fe80::22c9:d0ff:fed9:645f%en1</div></td></tr><tr><td><div>::ffff:127.0.0.1</div></td></tr><tr><td><div>::1</div></td></tr><tr><td><div>192.168.1.4</div></td></tr><tr><td><div>MacBook-Pro-de-Joao.local</div></td></tr><tr><td><div>127.0.0.1</div></td></tr></table></div></td></tr><tr><td style="font-weight:bold;vertical-align:top;">path_info</td><td style="vertical-align:top;">:</td><td><div>/Cifra/default/evernote</div></td></tr><tr><td style="font-weight:bold;vertical-align:top;">query_string</td><td style="vertical-align:top;">:</td><td><div></div></td></tr><tr><td style="font-weight:bold;vertical-align:top;">remote_addr</td><td style="vertical-align:top;">:</td><td><div>127.0.0.1</div></td></tr><tr><td style="font-weight:bold;vertical-align:top;">remote_port</td><td style="vertical-align:top;">:</td><td><div>51128</div></td></tr><tr><td style="font-weight:bold;vertical-align:top;">request_method</td><td style="vertical-align:top;">:</td><td><div>GET</div></td></tr><tr><td style="font-weight:bold;vertical-align:top;">request_uri</td><td style="vertical-align:top;">:</td><td><div>/Cifra/default/evernote</div></td></tr><tr><td style="font-weight:bold;vertical-align:top;">script_name</td><td style="vertical-align:top;">:</td><td><div></div></td></tr><tr><td style="font-weight:bold;vertical-align:top;">server_name</td><td style="vertical-align:top;">:</td><td><div>MacBook-Pro-de-Joao.local</div></td></tr><tr><td style="font-weight:bold;vertical-align:top;">server_port</td><td style="vertical-align:top;">:</td><td><div>8000</div></td></tr><tr><td style="font-weight:bold;vertical-align:top;">server_protocol</td><td style="vertical-align:top;">:</td><td><div>HTTP/1.1</div></td></tr><tr><td style="font-weight:bold;vertical-align:top;">server_software</td><td style="vertical-align:top;">:</td><td><div>Rocket 1.2.6</div></td></tr><tr><td style="font-weight:bold;vertical-align:top;">web2py_path</td><td style="vertical-align:top;">:</td><td><div>/Users/JoaoBtte/Documents/python/Hello</div></td></tr><tr><td style="font-weight:bold;vertical-align:top;">web2py_version</td><td style="vertical-align:top;">:</td><td><div>2.6.2-stable+timestamp.2013.09.13.22.53.04</div></td></tr><tr><td style="font-weight:bold;vertical-align:top;">wsgi.errors</td><td style="vertical-align:top;">:</td><td><div>&lt;open file &#x27;&lt;stderr&gt;&#x27;, mode &#x27;w&#x27; at 0x10745e270&gt;</div></td></tr><tr><td style="font-weight:bold;vertical-align:top;">wsgi.file_wrapper</td><td style="vertical-align:top;">:</td><td><div>&lt;class wsgiref.util.FileWrapper at 0x1083f2328&gt;</div></td></tr><tr><td style="font-weight:bold;vertical-align:top;">wsgi.input</td><td style="vertical-align:top;">:</td><td><div>&lt;socket._fileobject object at 0x10af1a150&gt;</div></td></tr><tr><td style="font-weight:bold;vertical-align:top;">wsgi.multiprocess</td><td style="vertical-align:top;">:</td><td><div>False</div></td></tr><tr><td style="font-weight:bold;vertical-align:top;">wsgi.multithread</td><td style="vertical-align:top;">:</td><td><div>True</div></td></tr><tr><td style="font-weight:bold;vertical-align:top;">wsgi.run_once</td><td style="vertical-align:top;">:</td><td><div>False</div></td></tr><tr><td style="font-weight:bold;vertical-align:top;">wsgi.url_scheme</td><td style="vertical-align:top;">:</td><td><div>http</div></td></tr><tr><td style="font-weight:bold;vertical-align:top;">wsgi.version</td><td style="vertical-align:top;">:</td><td><div><table><tr><td><div>1</div></td></tr><tr><td><div>0</div></td></tr></table></div></td></tr><tr><td style="font-weight:bold;vertical-align:top;">wsgi_errors</td><td style="vertical-align:top;">:</td><td><div>&lt;open file &#x27;&lt;stderr&gt;&#x27;, mode &#x27;w&#x27; at 0x10745e270&gt;</div></td></tr><tr><td style="font-weight:bold;vertical-align:top;">wsgi_file_wrapper</td><td style="vertical-align:top;">:</td><td><div>&lt;class wsgiref.util.FileWrapper at 0x1083f2328&gt;</div></td></tr><tr><td style="font-weight:bold;vertical-align:top;">wsgi_input</td><td style="vertical-align:top;">:</td><td><div>&lt;socket._fileobject object at 0x10af1a150&gt;</div></td></tr><tr><td style="font-weight:bold;vertical-align:top;">wsgi_multiprocess</td><td style="vertical-align:top;">:</td><td><div>False</div></td></tr><tr><td style="font-weight:bold;vertical-align:top;">wsgi_multithread</td><td style="vertical-align:top;">:</td><td><div>True</div></td></tr><tr><td style="font-weight:bold;vertical-align:top;">wsgi_run_once</td><td style="vertical-align:top;">:</td><td><div>False</div></td></tr><tr><td style="font-weight:bold;vertical-align:top;">wsgi_url_scheme</td><td style="vertical-align:top;">:</td><td><div>http</div></td></tr><tr><td style="font-weight:bold;vertical-align:top;">wsgi_version</td><td style="vertical-align:top;">:</td><td><div><table><tr><td><div>1</div></td></tr><tr><td><div>0</div></td></tr></table></div></td></tr></table></div></td></tr><tr><td style="font-weight:bold;vertical-align:top;">extension</td><td style="vertical-align:top;">:</td><td><div>html</div></td></tr><tr><td style="font-weight:bold;vertical-align:top;">folder</td><td style="vertical-align:top;">:</td><td><div>/Users/JoaoBtte/Documents/python/Hello/applications/Cifra/</div></td></tr><tr><td style="font-weight:bold;vertical-align:top;">function</td><td style="vertical-align:top;">:</td><td><div>evernote</div></td></tr><tr><td style="font-weight:bold;vertical-align:top;">global_settings</td><td style="vertical-align:top;">:</td><td><div><table><tr><td style="font-weight:bold;vertical-align:top;">app_folders</td><td style="vertical-align:top;">:</td><td><div>set([&#x27;/Users/JoaoBtte/Documents/python/Hello/applications/admin/&#x27;, &#x27;/Users/JoaoBtte/Documents/python/Hello/applications/welcome/&#x27;, &#x27;/Users/JoaoBtte/Documents/python/Hello/applications/Cifra/&#x27;])</div></td></tr><tr><td style="font-weight:bold;vertical-align:top;">applications_parent</td><td style="vertical-align:top;">:</td><td><div>/Users/JoaoBtte/Documents/python/Hello</div></td></tr><tr><td style="font-weight:bold;vertical-align:top;">cmd_args</td><td style="vertical-align:top;">:</td><td><div><table></table></div></td></tr><tr><td style="font-weight:bold;vertical-align:top;">cmd_options</td><td style="vertical-align:top;">:</td><td><div>&lt;Values at 0x1083d2830: {&#x27;verbose&#x27;: False, &#x27;ip&#x27;: &#x27;127.0.0.1&#x27;, &#x27;debuglevel&#x27;: 30, &#x27;with_scheduler&#x27;: False, &#x27;ips&#x27;: [&#x27;fe80::22c9:d0ff:fed9:645f%en1&#x27;, &#x27;192.168.1.4&#x27;], &#x27;shutdown_timeout&#x27;: 5, &#x27;taskbar&#x27;: False, &#x27;with_coverage&#x27;: False, &#x27;port&#x27;: 8000, &#x27;maxthreads&#x27;: None, &#x27;softcron&#x27;: False, &#x27;server_name&#x27;: &#x27;MacBook-Pro-de-Joao.local&#x27;, &#x27;bpython&#x27;: False, &#x27;nogui&#x27;: False, &#x27;pid_filename&#x27;: &#x27;httpserver.pid&#x27;, &#x27;extcron&#x27;: False, &#x27;runcron&#x27;: False, &#x27;run_system_tests&#x27;: False, &#x27;test&#x27;: None, &#x27;folder&#x27;: &#x27;/Users/JoaoBtte/Documents/python/Hello&#x27;, &#x27;config&#x27;: &#x27;&#x27;, &#x27;minthreads&#x27;: None, &#x27;winservice&#x27;: &#x27;&#x27;, &#x27;shell&#x27;: None, &#x27;run&#x27;: &#x27;&#x27;, &#x27;log_filename&#x27;: &#x27;httpserver.log&#x27;, &#x27;profiler_dir&#x27;: None, &#x27;args&#x27;: [&#x27;&#x27;], &#x27;socket_timeout&#x27;: 5, &#x27;ssl_ca_certificate&#x27;: None, &#x27;scheduler&#x27;: None, &#x27;interfaces&#x27;: None, &#x27;ssl_private_key&#x27;: &#x27;&#x27;, &#x27;scheduler_groups&#x27;: None, &#x27;password&#x27;: &#x27;&lt;ask&gt;&#x27;, &#x27;request_queue_size&#x27;: 5, &#x27;ssl_certificate&#x27;: &#x27;&#x27;, &#x27;cronjob&#x27;: False, &#x27;numthreads&#x27;: None, &#x27;quiet&#x27;: False, &#x27;import_models&#x27;: False, &#x27;timeout&#x27;: 10, &#x27;plain&#x27;: False, &#x27;nobanner&#x27;: False}&gt;</div></td></tr><tr><td style="font-weight:bold;vertical-align:top;">db_sessions</td><td style="vertical-align:top;">:</td><td><div>set([])</div></td></tr><tr><td style="font-weight:bold;vertical-align:top;">debugging</td><td style="vertical-align:top;">:</td><td><div>True</div></td></tr><tr><td style="font-weight:bold;vertical-align:top;">gluon_parent</td><td style="vertical-align:top;">:</td><td><div>/Users/JoaoBtte/Documents/python/Hello</div></td></tr><tr><td style="font-weight:bold;vertical-align:top;">is_jython</td><td style="vertical-align:top;">:</td><td><div>False</div></td></tr><tr><td style="font-weight:bold;vertical-align:top;">is_pypy</td><td style="vertical-align:top;">:</td><td><div>False</div></td></tr><tr><td style="font-weight:bold;vertical-align:top;">is_source</td><td style="vertical-align:top;">:</td><td><div>True</div></td></tr><tr><td style="font-weight:bold;vertical-align:top;">local_hosts</td><td style="vertical-align:top;">:</td><td><div><table><tr><td><div>fe80::22c9:d0ff:fed9:645f%en1</div></td></tr><tr><td><div>::ffff:127.0.0.1</div></td></tr><tr><td><div>::1</div></td></tr><tr><td><div>192.168.1.4</div></td></tr><tr><td><div>MacBook-Pro-de-Joao.local</div></td></tr><tr><td><div>127.0.0.1</div></td></tr></table></div></td></tr><tr><td style="font-weight:bold;vertical-align:top;">web2py_version</td><td style="vertical-align:top;">:</td><td><div>2.6.2-stable+timestamp.2013.09.13.22.53.04</div></td></tr></table></div></td></tr><tr><td style="font-weight:bold;vertical-align:top;">is_https</td><td style="vertical-align:top;">:</td><td><div>False</div></td></tr><tr><td style="font-weight:bold;vertical-align:top;">is_local</td><td style="vertical-align:top;">:</td><td><div>True</div></td></tr><tr><td style="font-weight:bold;vertical-align:top;">is_restful</td><td style="vertical-align:top;">:</td><td><div>False</div></td></tr><tr><td style="font-weight:bold;vertical-align:top;">now</td><td style="vertical-align:top;">:</td><td><div>datetime.datetime(2013, 9, 26, 23, 46, 34, 739416)</div></td></tr><tr><td style="font-weight:bold;vertical-align:top;">raw_args</td><td style="vertical-align:top;">:</td><td><div></div></td></tr><tr><td style="font-weight:bold;vertical-align:top;">raw_extension</td><td style="vertical-align:top;">:</td><td><div>None</div></td></tr><tr><td style="font-weight:bold;vertical-align:top;">url</td><td style="vertical-align:top;">:</td><td><div>/Cifra/default/evernote</div></td></tr><tr><td style="font-weight:bold;vertical-align:top;">utcnow</td><td style="vertical-align:top;">:</td><td><div>datetime.datetime(2013, 9, 27, 2, 46, 34, 739426)</div></td></tr><tr><td style="font-weight:bold;vertical-align:top;">uuid</td><td style="vertical-align:top;">:</td><td><div>Cifra/127.0.0.1.2013-09-26.23-46-34.a15fc79f-f3fa-4478-958b-cf15a1963914</div></td></tr><tr><td style="font-weight:bold;vertical-align:top;">wsgi</td><td style="vertical-align:top;">:</td><td><div>&lt;gluon.main.LazyWSGI object at 0x108828c50&gt;</div></td></tr></table></div>'
tRp67
sS'frames'
p68
(lp69
(dp70
S'file'
p71
S'/Users/JoaoBtte/Documents/python/Hello/gluon/restricted.py'
p72
sS'dump'
p73
(dp74
S'environment'
p75
S"{'A': <class 'gluon.html.A'>, 'ANY_OF': <class 'gluon.validators.ANY_OF'>, 'Auth': <class 'gluon.tools.Auth'>, 'B': <class 'gluon.html.B'>, 'BEAUTIFY': <class 'gluon.html.BEAUTIFY'>, 'BODY': <class 'gluon.html.BODY'>, 'BR': <class 'gluon.html.BR'>, 'BUTTON': <class 'gluon.html.BUTTON'>, 'CAT': <class 'gluon.html.CAT'>, 'CENTER': <class 'gluon.html.CENTER'>, ...}"
p76
sS'ccode'
p77
S'<code object <module> at 0x10878a530, file "/Use...plications/Cifra/controllers/default.py", line 1>'
p78
ssS'lnum'
p79
I217
sS'lines'
p80
(dp81
I212
S'    try:'
p82
sI213
S'        if isinstance(code, types.CodeType):'
p83
sI214
S'            ccode = code'
p84
sI215
S'        else:'
p85
sI216
S'            ccode = compile2(code, layer)'
p86
sI217
S'        exec ccode in environment'
p87
sI218
S'    except HTTP:'
p88
sI219
S'        raise'
p89
sI220
S'    except RestrictedError:'
p90
sI221
S'        # do not encapsulate (obfuscate) the original RestrictedError'
p91
ssS'call'
p92
S"(code='def user():\\n    return dict(form=auth())\\n\\ndef in... data\\n\\nresponse._vars=response._caller(evernote)\\n', environment={'A': <class 'gluon.html.A'>, 'ANY_OF': <class 'gluon.validators.ANY_OF'>, 'Auth': <class 'gluon.tools.Auth'>, 'B': <class 'gluon.html.B'>, 'BEAUTIFY': <class 'gluon.html.BEAUTIFY'>, 'BODY': <class 'gluon.html.BODY'>, 'BR': <class 'gluon.html.BR'>, 'BUTTON': <class 'gluon.html.BUTTON'>, 'CAT': <class 'gluon.html.CAT'>, 'CENTER': <class 'gluon.html.CENTER'>, ...}, layer='/Users/JoaoBtte/Documents/python/Hello/applications/Cifra/controllers/default.py')"
p93
sS'func'
p94
S'restricted'
p95
sa(dp96
g71
S'/Users/JoaoBtte/Documents/python/Hello/applications/Cifra/controllers/default.py'
p97
sg73
(dp98
sg79
I73
sg80
(dp99
I64
S'    story.append(Paragraph(escape(heading),styles["Heading3"]))'
p100
sI65
S'    story.append(Preformatted(escape(text), styles["Normal"]))'
p101
sI66
S'    story.append(Spacer(1,2*inch))'
p102
sI67
S'    doc.build(story)'
p103
sI68
S'    data = open(tmpfilename,"rb").read()'
p104
sI69
S'    os.unlink(tmpfilename)'
p105
sI70
S"    response.headers['Content-Type']='application/pdf'"
p106
sI71
S'    return data'
p107
sI62
S'    story = []'
p108
sI63
S'    story.append(Paragraph(escape(title),styles["Heading1"]))'
p109
ssg92
S'()'
p110
sg94
S'<module>'
p111
sa(dp112
g71
S'/Users/JoaoBtte/Documents/python/Hello/gluon/globals.py'
p113
sg73
(dp114
S'self'
p115
S'undefined'
p116
sS'f'
S'<function evernote>'
p117
ssg79
I378
sg80
(dp118
I373
S'        self.menu = []             # used by the default view layout'
p119
sI374
S'        self.files = []            # used by web2py_ajax.html'
p120
sI375
S'        self.generic_patterns = []  # patterns to allow generic views'
p121
sI376
S"        self.delimiters = ('{{', '}}')"
p122
sI377
S'        self._vars = None'
p123
sI378
S'        self._caller = lambda f: f()'
p124
sI379
S'        self._view_environment = None'
p125
sI380
S'        self._custom_commit = None'
p126
sI381
S'        self._custom_rollback = None'
p127
sI382
S''
ssg92
S'(f=<function evernote>)'
p128
sg94
S'<lambda>'
p129
sa(dp130
g71
S'/Users/JoaoBtte/Documents/python/Hello/applications/Cifra/controllers/default.py'
p131
sg73
(dp132
S'session.banda'
p133
S"' Banda Eva'"
p134
sS'global session'
p135
S"<Storage {'letra': 'Tom: D\\r\\n\\t\\t\\nA9          ....76', 'name': 'Chrome'}}, 'banda': ' Banda Eva'}>"
p136
sS'evernote_song.evernote_song'
p137
S'<function evernote_song>'
p138
sS'session.name'
p139
S"' Duas Medidas '"
p140
sS'session.letra'
p141
S"'Tom: D\\r\\n\\t\\t\\nA9               D9        A9    D9\\nV...voc\\xc3\\xaa \\xc3\\xa9 o vento que leva\\n        A\\nMeu cora\\xc3\\xa7\\xc3\\xa3o'"
p142
sS'evernote_song'
p143
S"<module 'applications.Cifra.modules.evernote_son...m 'applications/Cifra/modules/evernote_song.pyc'>"
p144
ssg79
I30
sg80
(dp145
I32
S"    #redirect(URL('ever'))"
p146
sI33
S'    return ("")'
p147
sI34
S''
sI25
S'    response.subtitles = session.name+"-"+session.banda'
p148
sI26
S'    return dict()'
p149
sI27
S''
sI28
S'def evernote():'
p150
sI29
S'    import evernote_song'
p151
sI30
S'    evernote_song.evernote_song(session.name, session.banda, session.letra)'
p152
sI31
S"    response.flash='Gravado no Evernote!'"
p153
ssg92
S'()'
p154
sg94
S'evernote'
p155
sa(dp156
g71
S'/Users/JoaoBtte/Documents/python/Hello/applications/Cifra/modules/evernote_song.py'
p157
sg73
(dp158
S'UserStoreConstants.EDAM_VERSION_MINOR'
p159
S'25'
p160
sS'UserStoreConstants'
p161
S"<module 'gluon.evernote.edam.userstore.constants...llo/gluon/evernote/edam/userstore/constants.pyc'>"
p162
ssg79
I33
sg80
(dp163
I32
S'        UserStoreConstants.EDAM_VERSION_MAJOR,'
p164
sI33
S'        UserStoreConstants.EDAM_VERSION_MINOR'
p165
sI34
S'    )'
p166
sI35
S''
sI36
S'    note_store = client.get_note_store()'
p167
sI37
S''
sI28
S'    user_store = client.get_user_store()'
p168
sI29
S''
sI30
S'    version_ok = user_store.checkVersion('
p169
sI31
S'        "Evernote EDAMTest (Python)",'
p170
ssg92
S"(title=' Duas Medidas ', band=' Banda Eva', song='Tom: D\\r\\n\\t\\t\\nA9               D9        A9    D9\\nV...voc\\xc3\\xaa \\xc3\\xa9 o vento que leva\\n        A\\nMeu cora\\xc3\\xa7\\xc3\\xa3o')"
p171
sg94
S'evernote_song'
p172
sa(dp173
g71
S'/Users/JoaoBtte/Documents/python/Hello/gluon/evernote/api/client.py'
p174
sg73
(dp175
S'targetMethod'
p176
S'<bound method Client.checkVersion of <gluon.evernote.edam.userstore.UserStore.Client object>>'
p177
sS'args'
p178
S"('Evernote EDAMTest (Python)', 1, 25)"
p179
sS'kwargs'
p180
g21
ssg79
I132
sg80
(dp181
I128
S'                return object.__getattribute__(self, name)(*args, **kwargs)'
p182
sI129
S''
sI130
S'            org_args = inspect.getargspec(targetMethod).args'
p183
sI131
S'            if len(org_args) == len(args) + 1:'
p184
sI132
S'                return targetMethod(*args, **kwargs)'
p185
sI133
S"            elif 'authenticationToken' in org_args:"
p186
sI134
S"                skip_args = ['self', 'authenticationToken']"
p187
sI135
S'                arg_names = [i for i in org_args if i not in skip_args]'
p188
sI136
S'                return functools.partial('
p189
sI127
S'            if targetMethod is None:'
p190
ssg92
S"(*args=('Evernote EDAMTest (Python)', 1, 25), **kwargs={})"
p191
sg94
S'delegate_method'
p192
sa(dp193
g71
S'/Users/JoaoBtte/Documents/python/Hello/gluon/evernote/edam/userstore/UserStore.py'
p194
sg73
(dp195
S'edamVersionMinor'
p196
S'25'
p197
sS'self'
p198
S'<gluon.evernote.edam.userstore.UserStore.Client object>'
p199
sS'edamVersionMajor'
p200
S'1'
sS'clientName'
p201
S"'Evernote EDAMTest (Python)'"
p202
sS'self.send_checkVersion'
p203
S'<bound method Client.send_checkVersion of <gluon.evernote.edam.userstore.UserStore.Client object>>'
p204
ssg79
I490
sg80
(dp205
I485
S'    Parameters:'
p206
sI486
S'     - clientName'
p207
sI487
S'     - edamVersionMajor'
p208
sI488
S'     - edamVersionMinor'
p209
sI489
S'    """'
p210
sI490
S'    self.send_checkVersion(clientName, edamVersionMajor, edamVersionMinor)'
p211
sI491
S'    return self.recv_checkVersion()'
p212
sI492
S''
sI493
S'  def send_checkVersion(self, clientName, edamVersionMajor, edamVersionMinor):'
p213
sI494
S"    self._oprot.writeMessageBegin('checkVersion', TMessageType.CALL, self._seqid)"
p214
ssg92
S"(self=<gluon.evernote.edam.userstore.UserStore.Client object>, clientName='Evernote EDAMTest (Python)', edamVersionMajor=1, edamVersionMinor=25)"
p215
sg94
S'checkVersion'
p216
sa(dp217
g71
S'/Users/JoaoBtte/Documents/python/Hello/gluon/evernote/edam/userstore/UserStore.py'
p218
sg73
(dp219
S'self'
p220
S'<gluon.evernote.edam.userstore.UserStore.Client object>'
p221
sS'self._oprot.trans'
p222
S'<gluon.thrift.transport.THttpClient.THttpClient instance>'
p223
sS'self._oprot.trans.flush'
p224
S'<bound method THttpClient._f of <gluon.thrift.transport.THttpClient.THttpClient instance>>'
p225
sS'self._oprot'
p226
S'<gluon.thrift.protocol.TBinaryProtocol.TBinaryProtocol instance>'
p227
ssg79
I501
sg80
(dp228
I496
S'    args.clientName = clientName'
p229
sI497
S'    args.edamVersionMajor = edamVersionMajor'
p230
sI498
S'    args.edamVersionMinor = edamVersionMinor'
p231
sI499
S'    args.write(self._oprot)'
p232
sI500
S'    self._oprot.writeMessageEnd()'
p233
sI501
S'    self._oprot.trans.flush()'
p234
sI502
S''
sI503
S'  def recv_checkVersion(self, ):'
p235
sI504
S'    (fname, mtype, rseqid) = self._iprot.readMessageBegin()'
p236
sI505
S'    if mtype == TMessageType.EXCEPTION:'
p237
ssg92
S"(self=<gluon.evernote.edam.userstore.UserStore.Client object>, clientName='Evernote EDAMTest (Python)', edamVersionMajor=1, edamVersionMinor=25)"
p238
sg94
S'send_checkVersion'
p239
sa(dp240
g71
S'/Users/JoaoBtte/Documents/python/Hello/gluon/thrift/transport/THttpClient.py'
p241
sg73
(dp242
S'kwargs'
p243
g21
sS'args'
p244
S'(<gluon.thrift.transport.THttpClient.THttpClient instance>,)'
p245
sS'result'
p246
g116
sS'f'
S'<function flush>'
p247
ssg79
I125
sg80
(dp248
I128
S'        return _f'
p249
sI129
S''
sI120
S''
sI121
S'    def __withTimeout(f):'
p250
sI122
S'        def _f(*args, **kwargs):'
p251
sI123
S'            orig_timeout = socket.getdefaulttimeout()'
p252
sI124
S'            socket.setdefaulttimeout(args[0].__timeout)'
p253
sI125
S'            result = f(*args, **kwargs)'
p254
sI126
S'            socket.setdefaulttimeout(orig_timeout)'
p255
sI127
S'            return result'
p256
ssg92
S'(*args=(<gluon.thrift.transport.THttpClient.THttpClient instance>,), **kwargs={})'
p257
sg94
S'_f'
p258
sa(dp259
g71
S'/Users/JoaoBtte/Documents/python/Hello/gluon/thrift/transport/THttpClient.py'
p260
sg73
(dp261
S'self'
p262
S'<gluon.thrift.transport.THttpClient.THttpClient instance>'
p263
sS'self.__http'
p264
g116
ssg79
I151
sg80
(dp265
I146
S"        self.__http.putheader('Host', self.host)"
p266
sI147
S"        self.__http.putheader('Content-Type', 'application/x-thrift')"
p267
sI148
S"        self.__http.putheader('Content-Length', str(len(data)))"
p268
sI149
S'        for key, value in self.__headers.iteritems():'
p269
sI150
S'            self.__http.putheader(key, value)'
p270
sI151
S'        self.__http.endheaders()'
p271
sI152
S''
sI153
S'        # Write payload'
p272
sI154
S'        self.__http.send(data)'
p273
sI155
S''
ssg92
S'(self=<gluon.thrift.transport.THttpClient.THttpClient instance>)'
p274
sg94
S'flush'
p275
sa(dp276
g71
S'/System/Library/Frameworks/Python.framework/Versions/2.7/lib/python2.7/httplib.py'
p277
sg73
(dp278
S'message_body'
p279
S'None'
p280
sS'self'
p281
S'<httplib.HTTPSConnection instance>'
p282
sS'self._send_output'
p283
S'<bound method HTTPSConnection._send_output of <httplib.HTTPSConnection instance>>'
p284
ssg79
I951
sg80
(dp285
I946
S'        """'
p286
sI947
S'        if self.__state == _CS_REQ_STARTED:'
p287
sI948
S'            self.__state = _CS_REQ_SENT'
p288
sI949
S'        else:'
p289
sI950
S'            raise CannotSendHeader()'
p290
sI951
S'        self._send_output(message_body)'
p291
sI952
S''
sI953
S'    def request(self, method, url, body=None, headers={}):'
p292
sI954
S'        """Send a complete request to the server."""'
p293
sI955
S'        self._send_request(method, url, body, headers)'
p294
ssg92
S'(self=<httplib.HTTPSConnection instance>, message_body=None)'
p295
sg94
S'endheaders'
p296
sa(dp297
g71
S'/System/Library/Frameworks/Python.framework/Versions/2.7/lib/python2.7/httplib.py'
p298
sg73
(dp299
S'msg'
p300
S"'POST //edam/user HTTP/1.0\\r\\nHost: sandbox.evernot...Apple Clang 4.0 (tags/Apple/clang-418.0.60)];\\r\\n\\r\\n'"
p301
sS'self'
p302
S'<httplib.HTTPSConnection instance>'
p303
sS'self.send'
p304
S'<bound method HTTPSConnection.send of <httplib.HTTPSConnection instance>>'
p305
ssg79
I811
sg80
(dp306
I806
S'        # it will avoid performance problems caused by the interaction'
p307
sI807
S'        # between delayed ack and the Nagle algorithm.'
p308
sI808
S'        if isinstance(message_body, str):'
p309
sI809
S'            msg += message_body'
p310
sI810
S'            message_body = None'
p311
sI811
S'        self.send(msg)'
p312
sI812
S'        if message_body is not None:'
p313
sI813
S'            #message_body was not a string (i.e. it is a file) and'
p314
sI814
S'            #we must run the risk of Nagle'
p315
sI815
S'            self.send(message_body)'
p316
ssg92
S'(self=<httplib.HTTPSConnection instance>, message_body=None)'
p317
sg94
S'_send_output'
p318
sa(dp319
g71
S'/System/Library/Frameworks/Python.framework/Versions/2.7/lib/python2.7/httplib.py'
p320
sg73
(dp321
S'self'
p322
S'<httplib.HTTPSConnection instance>'
p323
sS'self.connect'
p324
S'<bound method HTTPSConnection.connect of <httplib.HTTPSConnection instance>>'
p325
ssg79
I773
sg80
(dp326
I768
S''
sI769
S'    def send(self, data):'
p327
sI770
S'        """Send `data\' to the server."""'
p328
sI771
S'        if self.sock is None:'
p329
sI772
S'            if self.auto_open:'
p330
sI773
S'                self.connect()'
p331
sI774
S'            else:'
p332
sI775
S'                raise NotConnected()'
p333
sI776
S''
sI777
S'        if self.debuglevel > 0:'
p334
ssg92
S"(self=<httplib.HTTPSConnection instance>, data='POST //edam/user HTTP/1.0\\r\\nHost: sandbox.evernot...Apple Clang 4.0 (tags/Apple/clang-418.0.60)];\\r\\n\\r\\n')"
p335
sg94
S'send'
p336
sa(dp337
g71
S'/System/Library/Frameworks/Python.framework/Versions/2.7/lib/python2.7/httplib.py'
p338
sg73
(dp339
S'self.timeout'
p340
S'<object object>'
p341
sS'self'
p342
S'<httplib.HTTPSConnection instance>'
p343
sS'self.source_address'
p344
S'None'
p345
ssg79
I1154
sg80
(dp346
I1152
S''
sI1153
S'            sock = socket.create_connection((self.host, self.port),'
p347
sI1154
S'                                            self.timeout, self.source_address)'
p348
sI1155
S'            if self._tunnel_host:'
p349
sI1156
S'                self.sock = sock'
p350
sI1157
S'                self._tunnel()'
p351
sI1158
S'            self.sock = ssl.wrap_socket(sock, self.key_file, self.cert_file)'
p352
sI1149
S''
sI1150
S'        def connect(self):'
p353
sI1151
S'            "Connect to a host on a given (SSL) port."'
p354
ssg92
S'(self=<httplib.HTTPSConnection instance>)'
p355
sg94
S'connect'
p356
sa(dp357
g71
S'/System/Library/Frameworks/Python.framework/Versions/2.7/lib/python2.7/socket.py'
p358
sg73
(dp359
S'global SOCK_STREAM'
p360
S'1'
sS'res'
p361
g116
sS'host'
p362
S"'sandbox.evernote.com'"
p363
sS'port'
p364
S'443'
p365
sS'global getaddrinfo'
p366
S'<built-in function getaddrinfo>'
p367
ssg79
I553
sg80
(dp368
I548
S"    An host of '' or port 0 tells the OS to use the default."
p369
sI549
S'    """'
p370
sI550
S''
sI551
S'    host, port = address'
p371
sI552
S'    err = None'
p372
sI553
S'    for res in getaddrinfo(host, port, 0, SOCK_STREAM):'
p373
sI554
S'        af, socktype, proto, canonname, sa = res'
p374
sI555
S'        sock = None'
p375
sI556
S'        try:'
p376
sI557
S'            sock = socket(af, socktype, proto)'
p377
ssg92
S"(address=('sandbox.evernote.com', 443), timeout=<object object>, source_address=None)"
p378
sg94
S'create_connection'
p379
sasS'pyver'
p380
S'Python 2.7.2: /usr/bin/python (prefix: /System/Library/Frameworks/Python.framework/Versions/2.7)'
p381
sS'session'
p382
g66
(S's\x96\x06\x00\x00<div><table><tr><td style="font-weight:bold;vertical-align:top;">banda</td><td style="vertical-align:top;">:</td><td><div> Banda Eva</div></td></tr><tr><td style="font-weight:bold;vertical-align:top;">letra</td><td style="vertical-align:top;">:</td><td><div>Tom: D\r\n\t\t\nA9               D9        A9    D9\nVou levar duas medidas na balan\xc3\xa7a\nA9               D9        F#m\nCaminhar entre avenidas do amor\n   D                  Bm\nVertentes que caem do c\xc3\xa9u\n  D                   Bm\nColares que tran\xc3\xa7am a flor\n   D9                 Bm        G   E4 E\nVerdades que doem no peito a raz\xc3\xa3o\n\nA9                 D9            A9    D9\nBom te ver doces momentos nessa estrada\nA9             D9          F#m\nBeira mar, acostamento j\xc3\xa1 se foi\n   D                    Bm\nPresentes que joguei no mar\n   D                Bm\nAs flores que l\xc3\xa1 deixei\n D              Bm                 G\nAinda me lembro como fosse hoje o adeus\n\n   E4 E\nVoltei\n\n   A                D\nS\xc3\xb3 vou querer ter voc\xc3\xaa aqui\n  C#7/4 C#7          F#m\nSorrindo te dar meu amor assim\n  D                  Bm                   G  E4 E\n\xc3\x89 claro que a vida ensina a gente a ser feliz\n  A                 D\nE vou te amar louco de paix\xc3\xa3o\n  C#7/4 C#7          F#m\nSe ainda me quer cheia de prazer\n   D                       Bm               G   E4 E\nEu sou um barco a vela e voc\xc3\xaa \xc3\xa9 o vento que leva\n        A\nMeu cora\xc3\xa7\xc3\xa3o</div></td></tr><tr><td style="font-weight:bold;vertical-align:top;">name</td><td style="vertical-align:top;">:</td><td><div> Duas Medidas </div></td></tr><tr><td style="font-weight:bold;vertical-align:top;">nome_musica</td><td style="vertical-align:top;">:</td><td><div>Duas_Medidas</div></td></tr></table></div>'
tRp383
sS'etype'
p384
S"<class 'socket.gaierror'>"
p385
sS'date'
p386
S'Thu Sep 26 23:47:05 2013'
p387
sS'response'
p388
g66
(S's\xb5.\x00\x00<div><table><tr><td style="font-weight:bold;vertical-align:top;">body</td><td style="vertical-align:top;">:</td><td><div>&lt;cStringIO.StringO object at 0x10bbeb928&gt;</div></td></tr><tr><td style="font-weight:bold;vertical-align:top;">cookies</td><td style="vertical-align:top;">:</td><td><div><table></table></div></td></tr><tr><td style="font-weight:bold;vertical-align:top;">delimiters</td><td style="vertical-align:top;">:</td><td><div><table><tr><td><div>{{</div></td></tr><tr><td><div>}}</div></td></tr></table></div></td></tr><tr><td style="font-weight:bold;vertical-align:top;">files</td><td style="vertical-align:top;">:</td><td><div><table></table></div></td></tr><tr><td style="font-weight:bold;vertical-align:top;">flash</td><td style="vertical-align:top;">:</td><td><div></div></td></tr><tr><td style="font-weight:bold;vertical-align:top;">generic_patterns</td><td style="vertical-align:top;">:</td><td><div><table></table></div></td></tr><tr><td style="font-weight:bold;vertical-align:top;">google_analytics_id</td><td style="vertical-align:top;">:</td><td><div>None</div></td></tr><tr><td style="font-weight:bold;vertical-align:top;">headers</td><td style="vertical-align:top;">:</td><td><div><table><tr><td style="font-weight:bold;vertical-align:top;">X-Powered-By</td><td style="vertical-align:top;">:</td><td><div>web2py</div></td></tr></table></div></td></tr><tr><td style="font-weight:bold;vertical-align:top;">menu</td><td style="vertical-align:top;">:</td><td><div><table><tr><td><div><table><tr><td><div>Home</div></td></tr><tr><td><div>False</div></td></tr><tr><td><div>/Cifra/default/index</div></td></tr><tr><td><div><table></table></div></td></tr></table></div></td></tr><tr><td><div><table><tr><td><div>Evernote</div></td></tr><tr><td><div>True</div></td></tr><tr><td><div>/Cifra/default/index</div></td></tr><tr><td><div><table></table></div></td></tr></table></div></td></tr><tr><td><div><table><tr><td><div>PDF</div></td></tr><tr><td><div>False</div></td></tr><tr><td><div>/Cifra/default/index</div></td></tr><tr><td><div><table></table></div></td></tr></table></div></td></tr><tr><td><div><table><tr><td><div>Imprimir</div></td></tr><tr><td><div>False</div></td></tr><tr><td><div>/Cifra/default/index</div></td></tr><tr><td><div><table></table></div></td></tr></table></div></td></tr><tr><td><div><table><tr><td><div><span class="highlighted">web2py</span></div></td></tr><tr><td><div>False</div></td></tr><tr><td><div>http://web2py.com</div></td></tr><tr><td><div><table><tr><td><div><table><tr><td><div>My Sites</div></td></tr><tr><td><div>False</div></td></tr><tr><td><div>/admin/default/site</div></td></tr></table></div></td></tr><tr><td><div><table><tr><td><div>This App</div></td></tr><tr><td><div>False</div></td></tr><tr><td><div>/admin/default/design/Cifra</div></td></tr><tr><td><div>[(&lt;lazyT &#x27;Controller&#x27;&gt;, False, &#x27;/admin/default/edit/Cifra/controllers/default.py&#x27;), (&lt;lazyT &#x27;View&#x27;&gt;, False, &#x27;/admin/default/edit/Cifra/views/default/evernote.html&#x27;), (&lt;lazyT &#x27;Layout&#x27;&gt;, False, &#x27;/admin/default/edit/Cifra/views/layout.html&#x27;), (&lt;lazyT &#x27;Stylesheet&#x27;&gt;, False, &#x27;/admin/default/edit/Cifra/static/css/web2py.css&#x27;), (&lt;lazyT &#x27;DB Model&#x27;&gt;, False, &#x27;/admin/default/edit/Cifra/models/db.py&#x27;), (&lt;lazyT &#x27;Menu Model&#x27;&gt;, False, &#x27;/admin/default/edit/Cifra/models/menu.py&#x27;), (&lt;lazyT &#x27;Database&#x27;&gt;, False, &#x27;/Cifra/appadmin/index&#x27;), (&lt;lazyT &#x27;Errors&#x27;&gt;, False, &#x27;/admin/default/errors/Cifra&#x27;), (&lt;lazyT &#x27;About&#x27;&gt;, False, &#x27;/admin/default/about/Cifra&#x27;)]</div></td></tr></table></div></td></tr><tr><td><div><table><tr><td><div>web2py.com</div></td></tr><tr><td><div>False</div></td></tr><tr><td><div>http://www.web2py.com</div></td></tr><tr><td><div>[(&lt;lazyT &#x27;Download&#x27;&gt;, False, &#x27;http://www.web2py.com/examples/default/download&#x27;), (&lt;lazyT &#x27;Support&#x27;&gt;, False, &#x27;http://www.web2py.com/examples/default/support&#x27;), (&lt;lazyT &#x27;Demo&#x27;&gt;, False, &#x27;http://web2py.com/demo_admin&#x27;), (&lt;lazyT &#x27;Quick Examples&#x27;&gt;, False, &#x27;http://web2py.com/examples/default/examples&#x27;), (&lt;lazyT &#x27;FAQ&#x27;&gt;, False, &#x27;http://web2py.com/AlterEgo&#x27;), (&lt;lazyT &#x27;Videos&#x27;&gt;, False, &#x27;http://www.web2py.com/examples/default/videos/&#x27;), (&lt;lazyT &#x27;Free Applications&#x27;&gt;, False, &#x27;http://web2py.com/appliances&#x27;), (&lt;lazyT &#x27;Plugins&#x27;&gt;, False, &#x27;http://web2py.com/plugins&#x27;), (&lt;lazyT &#x27;Layouts&#x27;&gt;, False, &#x27;http://web2py.com/layouts&#x27;), (&lt;lazyT &#x27;Recipes&#x27;&gt;, False, &#x27;http://web2pyslices.com/&#x27;), (&lt;lazyT &#x27;Semantic&#x27;&gt;, False, &#x27;http://web2py.com/semantic&#x27;)]</div></td></tr></table></div></td></tr><tr><td><div><table><tr><td><div>Documentation</div></td></tr><tr><td><div>False</div></td></tr><tr><td><div>http://www.web2py.com/book</div></td></tr><tr><td><div>[(&lt;lazyT &#x27;Preface&#x27;&gt;, False, &#x27;http://www.web2py.com/book/default/chapter/00&#x27;), (&lt;lazyT &#x27;Introduction&#x27;&gt;, False, &#x27;http://www.web2py.com/book/default/chapter/01&#x27;), (&lt;lazyT &#x27;Python&#x27;&gt;, False, &#x27;http://www.web2py.com/book/default/chapter/02&#x27;), (&lt;lazyT &#x27;Overview&#x27;&gt;, False, &#x27;http://www.web2py.com/book/default/chapter/03&#x27;), (&lt;lazyT &#x27;The Core&#x27;&gt;, False, &#x27;http://www.web2py.com/book/default/chapter/04&#x27;), (&lt;lazyT &#x27;The Views&#x27;&gt;, False, &#x27;http://www.web2py.com/book/default/chapter/05&#x27;), (&lt;lazyT &#x27;Database&#x27;&gt;, False, &#x27;http://www.web2py.com/book/default/chapter/06&#x27;), (&lt;lazyT &#x27;Forms and Validators&#x27;&gt;, False, &#x27;http://www.web2py.com/book/default/chapter/07&#x27;), (&lt;lazyT &#x27;Email and SMS&#x27;&gt;, False, &#x27;http://www.web2py.com/book/default/chapter/08&#x27;), (&lt;lazyT &#x27;Access Control&#x27;&gt;, False, &#x27;http://www.web2py.com/book/default/chapter/09&#x27;), (&lt;lazyT &#x27;Services&#x27;&gt;, False, &#x27;http://www.web2py.com/book/default/chapter/10&#x27;), (&lt;lazyT &#x27;Ajax Recipes&#x27;&gt;, False, &#x27;http://www.web2py.com/book/default/chapter/11&#x27;), (&lt;lazyT &#x27;Components and Plugins&#x27;&gt;, False, &#x27;http://www.web2py.com/book/default/chapter/12&#x27;), (&lt;lazyT &#x27;Deployment Recipes&#x27;&gt;, False, &#x27;http://www.web2py.com/book/default/chapter/13&#x27;), (&lt;lazyT &#x27;Other Recipes&#x27;&gt;, False, &#x27;http://www.web2py.com/book/default/chapter/14&#x27;), (&lt;lazyT &#x27;Buy this book&#x27;&gt;, False, &#x27;http://stores.lulu.com/web2py&#x27;)]</div></td></tr></table></div></td></tr><tr><td><div><table><tr><td><div>Community</div></td></tr><tr><td><div>False</div></td></tr><tr><td><div>None</div></td></tr><tr><td><div>[(&lt;lazyT &#x27;Groups&#x27;&gt;, False, &#x27;http://www.web2py.com/examples/default/usergroups&#x27;), (&lt;lazyT &#x27;Twitter&#x27;&gt;, False, &#x27;http://twitter.com/web2py&#x27;), (&lt;lazyT &#x27;Live Chat&#x27;&gt;, False, &#x27;http://webchat.freenode.net/?channels=web2py&#x27;)]</div></td></tr></table></div></td></tr><tr><td><div><table><tr><td><div>Plugins</div></td></tr><tr><td><div>False</div></td></tr><tr><td><div>None</div></td></tr><tr><td><div>[(&#x27;plugin_wiki&#x27;, False, &#x27;http://web2py.com/examples/default/download&#x27;), (&lt;lazyT &#x27;Other Plugins&#x27;&gt;, False, &#x27;http://web2py.com/plugins&#x27;), (&lt;lazyT &#x27;Layout Plugins&#x27;&gt;, False, &#x27;http://web2py.com/layouts&#x27;)]</div></td></tr></table></div></td></tr></table></div></td></tr></table></div></td></tr></table></div></td></tr><tr><td style="font-weight:bold;vertical-align:top;">meta</td><td style="vertical-align:top;">:</td><td><div><table><tr><td style="font-weight:bold;vertical-align:top;">author</td><td style="vertical-align:top;">:</td><td><div>Your Name &lt;you@example.com&gt;</div></td></tr><tr><td style="font-weight:bold;vertical-align:top;">description</td><td style="vertical-align:top;">:</td><td><div>a cool new app</div></td></tr><tr><td style="font-weight:bold;vertical-align:top;">generator</td><td style="vertical-align:top;">:</td><td><div>Web2py Web Framework</div></td></tr><tr><td style="font-weight:bold;vertical-align:top;">keywords</td><td style="vertical-align:top;">:</td><td><div>web2py, python, framework</div></td></tr></table></div></td></tr><tr><td style="font-weight:bold;vertical-align:top;">models_to_run</td><td style="vertical-align:top;">:</td><td><div><table><tr><td><div>^\\w+\\.py$</div></td></tr><tr><td><div>^default/\\w+\\.py$</div></td></tr><tr><td><div>^default/evernote/\\w+\\.py$</div></td></tr></table></div></td></tr><tr><td style="font-weight:bold;vertical-align:top;">postprocessing</td><td style="vertical-align:top;">:</td><td><div><table></table></div></td></tr><tr><td style="font-weight:bold;vertical-align:top;">session_client</td><td style="vertical-align:top;">:</td><td><div>127.0.0.1</div></td></tr><tr><td style="font-weight:bold;vertical-align:top;">session_cookie_compression_level</td><td style="vertical-align:top;">:</td><td><div>None</div></td></tr><tr><td style="font-weight:bold;vertical-align:top;">session_cookie_expires</td><td style="vertical-align:top;">:</td><td><div>None</div></td></tr><tr><td style="font-weight:bold;vertical-align:top;">session_cookie_key</td><td style="vertical-align:top;">:</td><td><div>None</div></td></tr><tr><td style="font-weight:bold;vertical-align:top;">session_data_name</td><td style="vertical-align:top;">:</td><td><div>session_data_cifra</div></td></tr><tr><td style="font-weight:bold;vertical-align:top;">session_file</td><td style="vertical-align:top;">:</td><td><div>&lt;open file &#x27;/Users/JoaoBtte/Documents/python/Hello/applications/Cifra/sessions/127.0.0.1-0c507f6e-3f44-4727-856c-722dd7d36f08&#x27;, mode &#x27;rb+&#x27; at 0x10bc410c0&gt;</div></td></tr><tr><td style="font-weight:bold;vertical-align:top;">session_filename</td><td style="vertical-align:top;">:</td><td><div>/Users/JoaoBtte/Documents/python/Hello/applications/Cifra/sessions/127.0.0.1-0c507f6e-3f44-4727-856c-722dd7d36f08</div></td></tr><tr><td style="font-weight:bold;vertical-align:top;">session_hash</td><td style="vertical-align:top;">:</td><td><div>aaefb5b466b87f6918c8070bf21cd4f9</div></td></tr><tr><td style="font-weight:bold;vertical-align:top;">session_id</td><td style="vertical-align:top;">:</td><td><div>127.0.0.1-0c507f6e-3f44-4727-856c-722dd7d36f08</div></td></tr><tr><td style="font-weight:bold;vertical-align:top;">session_id_name</td><td style="vertical-align:top;">:</td><td><div>session_id_cifra</div></td></tr><tr><td style="font-weight:bold;vertical-align:top;">session_locked</td><td style="vertical-align:top;">:</td><td><div>True</div></td></tr><tr><td style="font-weight:bold;vertical-align:top;">session_masterapp</td><td style="vertical-align:top;">:</td><td><div>Cifra</div></td></tr><tr><td style="font-weight:bold;vertical-align:top;">session_new</td><td style="vertical-align:top;">:</td><td><div>False</div></td></tr><tr><td style="font-weight:bold;vertical-align:top;">session_storage_type</td><td style="vertical-align:top;">:</td><td><div>file</div></td></tr><tr><td style="font-weight:bold;vertical-align:top;">status</td><td style="vertical-align:top;">:</td><td><div>200</div></td></tr><tr><td style="font-weight:bold;vertical-align:top;">subtitle</td><td style="vertical-align:top;">:</td><td><div></div></td></tr><tr><td style="font-weight:bold;vertical-align:top;">title</td><td style="vertical-align:top;">:</td><td><div>Cifra</div></td></tr><tr><td style="font-weight:bold;vertical-align:top;">view</td><td style="vertical-align:top;">:</td><td><div>default/evernote.html</div></td></tr></table></div>'
tRp389
sS'locals'
p390
(dp391
S'err'
p392
S'None'
p393
sS'host'
p394
S"'sandbox.evernote.com'"
p395
sS'timeout'
p396
S'<object object>'
p397
sS'address'
p398
S"('sandbox.evernote.com', 443)"
p399
sS'source_address'
p400
S'None'
p401
sS'port'
p402
S'443'
p403
sssS'traceback'
p404
S'Traceback (most recent call last):\n  File "/Users/JoaoBtte/Documents/python/Hello/gluon/restricted.py", line 217, in restricted\n    exec ccode in environment\n  File "/Users/JoaoBtte/Documents/python/Hello/applications/Cifra/controllers/default.py", line 73, in <module>\n  File "/Users/JoaoBtte/Documents/python/Hello/gluon/globals.py", line 378, in <lambda>\n    self._caller = lambda f: f()\n  File "/Users/JoaoBtte/Documents/python/Hello/applications/Cifra/controllers/default.py", line 30, in evernote\n    evernote_song.evernote_song(session.name, session.banda, session.letra)\n  File "applications/Cifra/modules/evernote_song.py", line 33, in evernote_song\n    UserStoreConstants.EDAM_VERSION_MINOR\n  File "/Users/JoaoBtte/Documents/python/Hello/gluon/evernote/api/client.py", line 132, in delegate_method\n    return targetMethod(*args, **kwargs)\n  File "/Users/JoaoBtte/Documents/python/Hello/gluon/evernote/edam/userstore/UserStore.py", line 490, in checkVersion\n    self.send_checkVersion(clientName, edamVersionMajor, edamVersionMinor)\n  File "/Users/JoaoBtte/Documents/python/Hello/gluon/evernote/edam/userstore/UserStore.py", line 501, in send_checkVersion\n    self._oprot.trans.flush()\n  File "/Users/JoaoBtte/Documents/python/Hello/gluon/thrift/transport/THttpClient.py", line 125, in _f\n    result = f(*args, **kwargs)\n  File "/Users/JoaoBtte/Documents/python/Hello/gluon/thrift/transport/THttpClient.py", line 151, in flush\n    self.__http.endheaders()\n  File "/System/Library/Frameworks/Python.framework/Versions/2.7/lib/python2.7/httplib.py", line 951, in endheaders\n    self._send_output(message_body)\n  File "/System/Library/Frameworks/Python.framework/Versions/2.7/lib/python2.7/httplib.py", line 811, in _send_output\n    self.send(msg)\n  File "/System/Library/Frameworks/Python.framework/Versions/2.7/lib/python2.7/httplib.py", line 773, in send\n    self.connect()\n  File "/System/Library/Frameworks/Python.framework/Versions/2.7/lib/python2.7/httplib.py", line 1154, in connect\n    self.timeout, self.source_address)\n  File "/System/Library/Frameworks/Python.framework/Versions/2.7/lib/python2.7/socket.py", line 553, in create_connection\n    for res in getaddrinfo(host, port, 0, SOCK_STREAM):\ngaierror: [Errno 8] nodename nor servname provided, or not known\n'
p405
s.