(dp1
S'output'
p2
S''
sS'layer'
p3
S'Framework'
p4
sS'code'
p5
S''
sS'snapshot'
p6
(dp7
S'exception'
p8
(dp9
S'__hash__'
p10
S"<method-wrapper '__hash__' of exceptions.RuntimeError object>"
p11
sS'__setattr__'
p12
S"<method-wrapper '__setattr__' of exceptions.RuntimeError object>"
p13
sS'__reduce_ex__'
p14
S'<built-in method __reduce_ex__ of exceptions.RuntimeError object>'
p15
sS'__getslice__'
p16
S"<method-wrapper '__getslice__' of exceptions.RuntimeError object>"
p17
sS'__getitem__'
p18
S"<method-wrapper '__getitem__' of exceptions.RuntimeError object>"
p19
sS'__setstate__'
p20
S'<built-in method __setstate__ of exceptions.RuntimeError object>'
p21
sS'args'
p22
S"('maximum recursion depth exceeded in cmp',)"
p23
sS'__reduce__'
p24
S'<built-in method __reduce__ of exceptions.RuntimeError object>'
p25
sS'__str__'
p26
S"<method-wrapper '__str__' of exceptions.RuntimeError object>"
p27
sS'__format__'
p28
S'<built-in method __format__ of exceptions.RuntimeError object>'
p29
sS'__getattribute__'
p30
S"<method-wrapper '__getattribute__' of exceptions.RuntimeError object>"
p31
sS'__class__'
p32
S"<type 'exceptions.RuntimeError'>"
p33
sS'__unicode__'
p34
S'<built-in method __unicode__ of exceptions.RuntimeError object>'
p35
sS'__delattr__'
p36
S"<method-wrapper '__delattr__' of exceptions.RuntimeError object>"
p37
sS'__subclasshook__'
p38
S'<built-in method __subclasshook__ of type object>'
p39
sS'__repr__'
p40
S"<method-wrapper '__repr__' of exceptions.RuntimeError object>"
p41
sS'__dict__'
p42
S'{}'
p43
sS'__sizeof__'
p44
S'<built-in method __sizeof__ of exceptions.RuntimeError object>'
p45
sS'__doc__'
p46
S"'Unspecified run-time error.'"
p47
sS'__init__'
p48
S"<method-wrapper '__init__' of exceptions.RuntimeError object>"
p49
sS'__new__'
p50
S'<built-in method __new__ of type object>'
p51
ssS'evalue'
p52
S'maximum recursion depth exceeded in cmp'
p53
sS'request'
p54
cgluon.html
XML_unpickle
p55
(S's\xf3c\x00\x00<div><table><tr><td style="font-weight:bold;vertical-align:top;">ajax</td><td style="vertical-align:top;">:</td><td><div>False</div></td></tr><tr><td style="font-weight:bold;vertical-align:top;">application</td><td style="vertical-align:top;">:</td><td><div>Cifra</div></td></tr><tr><td style="font-weight:bold;vertical-align:top;">args</td><td style="vertical-align:top;">:</td><td><div><table></table></div></td></tr><tr><td style="font-weight:bold;vertical-align:top;">cid</td><td style="vertical-align:top;">:</td><td><div>None</div></td></tr><tr><td style="font-weight:bold;vertical-align:top;">client</td><td style="vertical-align:top;">:</td><td><div>127.0.0.1</div></td></tr><tr><td style="font-weight:bold;vertical-align:top;">controller</td><td style="vertical-align:top;">:</td><td><div>default</div></td></tr><tr><td style="font-weight:bold;vertical-align:top;">cookies</td><td style="vertical-align:top;">:</td><td><div><table><tr><td style="font-weight:bold;vertical-align:top;">session_id_admin</td><td style="vertical-align:top;">:</td><td><div>127.0.0.1-4274dca4-1eac-4efb-b963-f405572e84d7<table><tr><td style="font-weight:bold;vertical-align:top;">comment</td><td style="vertical-align:top;">:</td><td><div></div></td></tr><tr><td style="font-weight:bold;vertical-align:top;">domain</td><td style="vertical-align:top;">:</td><td><div></div></td></tr><tr><td style="font-weight:bold;vertical-align:top;">expires</td><td style="vertical-align:top;">:</td><td><div></div></td></tr><tr><td style="font-weight:bold;vertical-align:top;">httponly</td><td style="vertical-align:top;">:</td><td><div></div></td></tr><tr><td style="font-weight:bold;vertical-align:top;">max-age</td><td style="vertical-align:top;">:</td><td><div></div></td></tr><tr><td style="font-weight:bold;vertical-align:top;">path</td><td style="vertical-align:top;">:</td><td><div></div></td></tr><tr><td style="font-weight:bold;vertical-align:top;">secure</td><td style="vertical-align:top;">:</td><td><div></div></td></tr><tr><td style="font-weight:bold;vertical-align:top;">version</td><td style="vertical-align:top;">:</td><td><div></div></td></tr></table></div></td></tr><tr><td style="font-weight:bold;vertical-align:top;">session_id_cifra</td><td style="vertical-align:top;">:</td><td><div>127.0.0.1-d107fe7e-5827-43f8-8fac-0f99228e14f9<table><tr><td style="font-weight:bold;vertical-align:top;">comment</td><td style="vertical-align:top;">:</td><td><div></div></td></tr><tr><td style="font-weight:bold;vertical-align:top;">domain</td><td style="vertical-align:top;">:</td><td><div></div></td></tr><tr><td style="font-weight:bold;vertical-align:top;">expires</td><td style="vertical-align:top;">:</td><td><div></div></td></tr><tr><td style="font-weight:bold;vertical-align:top;">httponly</td><td style="vertical-align:top;">:</td><td><div></div></td></tr><tr><td style="font-weight:bold;vertical-align:top;">max-age</td><td style="vertical-align:top;">:</td><td><div></div></td></tr><tr><td style="font-weight:bold;vertical-align:top;">path</td><td style="vertical-align:top;">:</td><td><div></div></td></tr><tr><td style="font-weight:bold;vertical-align:top;">secure</td><td style="vertical-align:top;">:</td><td><div></div></td></tr><tr><td style="font-weight:bold;vertical-align:top;">version</td><td style="vertical-align:top;">:</td><td><div></div></td></tr></table></div></td></tr><tr><td style="font-weight:bold;vertical-align:top;">session_id_welcome</td><td style="vertical-align:top;">:</td><td><div>127.0.0.1-d3b98bee-3c8d-49a8-b6e4-e18c612d201a<table><tr><td style="font-weight:bold;vertical-align:top;">comment</td><td style="vertical-align:top;">:</td><td><div></div></td></tr><tr><td style="font-weight:bold;vertical-align:top;">domain</td><td style="vertical-align:top;">:</td><td><div></div></td></tr><tr><td style="font-weight:bold;vertical-align:top;">expires</td><td style="vertical-align:top;">:</td><td><div></div></td></tr><tr><td style="font-weight:bold;vertical-align:top;">httponly</td><td style="vertical-align:top;">:</td><td><div></div></td></tr><tr><td style="font-weight:bold;vertical-align:top;">max-age</td><td style="vertical-align:top;">:</td><td><div></div></td></tr><tr><td style="font-weight:bold;vertical-align:top;">path</td><td style="vertical-align:top;">:</td><td><div></div></td></tr><tr><td style="font-weight:bold;vertical-align:top;">secure</td><td style="vertical-align:top;">:</td><td><div></div></td></tr><tr><td style="font-weight:bold;vertical-align:top;">version</td><td style="vertical-align:top;">:</td><td><div></div></td></tr></table></div></td></tr></table></div></td></tr><tr><td style="font-weight:bold;vertical-align:top;">env</td><td style="vertical-align:top;">:</td><td><div><table><tr><td style="font-weight:bold;vertical-align:top;">CONTENT_LENGTH</td><td style="vertical-align:top;">:</td><td><div>427</div></td></tr><tr><td style="font-weight:bold;vertical-align:top;">CONTENT_TYPE</td><td style="vertical-align:top;">:</td><td><div>multipart/form-data; boundary=----WebKitFormBoundaryrfFYL6OVacbUzXs1</div></td></tr><tr><td style="font-weight:bold;vertical-align:top;">HTTP_ACCEPT</td><td style="vertical-align:top;">:</td><td><div>text/html,application/xhtml+xml,application/xml;q=0.9,*/*;q=0.8</div></td></tr><tr><td style="font-weight:bold;vertical-align:top;">HTTP_ACCEPT_ENCODING</td><td style="vertical-align:top;">:</td><td><div>gzip,deflate,sdch</div></td></tr><tr><td style="font-weight:bold;vertical-align:top;">HTTP_ACCEPT_LANGUAGE</td><td style="vertical-align:top;">:</td><td><div>pt-BR,pt;q=0.8,en-US;q=0.6,en;q=0.4</div></td></tr><tr><td style="font-weight:bold;vertical-align:top;">HTTP_CACHE_CONTROL</td><td style="vertical-align:top;">:</td><td><div>max-age=0</div></td></tr><tr><td style="font-weight:bold;vertical-align:top;">HTTP_CONNECTION</td><td style="vertical-align:top;">:</td><td><div>keep-alive</div></td></tr><tr><td style="font-weight:bold;vertical-align:top;">HTTP_CONTENT_LENGTH</td><td style="vertical-align:top;">:</td><td><div>427</div></td></tr><tr><td style="font-weight:bold;vertical-align:top;">HTTP_CONTENT_TYPE</td><td style="vertical-align:top;">:</td><td><div>multipart/form-data; boundary=----WebKitFormBoundaryrfFYL6OVacbUzXs1</div></td></tr><tr><td style="font-weight:bold;vertical-align:top;">HTTP_COOKIE</td><td style="vertical-align:top;">:</td><td><div>session_id_welcome=127.0.0.1-d3b98bee-3c8d-49a8-b6e4-e18c612d201a; session_id_admin=127.0.0.1-4274dca4-1eac-4efb-b963-f405572e84d7; session_id_cifra=127.0.0.1-d107fe7e-5827-43f8-8fac-0f99228e14f9</div></td></tr><tr><td style="font-weight:bold;vertical-align:top;">HTTP_HOST</td><td style="vertical-align:top;">:</td><td><div>127.0.0.1:8000</div></td></tr><tr><td style="font-weight:bold;vertical-align:top;">HTTP_ORIGIN</td><td style="vertical-align:top;">:</td><td><div>http://127.0.0.1:8000</div></td></tr><tr><td style="font-weight:bold;vertical-align:top;">HTTP_REFERER</td><td style="vertical-align:top;">:</td><td><div>http://127.0.0.1:8000/Cifra/default/index</div></td></tr><tr><td style="font-weight:bold;vertical-align:top;">HTTP_USER_AGENT</td><td style="vertical-align:top;">:</td><td><div>Mozilla/5.0 (Macintosh; Intel Mac OS X 10_8_4) AppleWebKit/537.36 (KHTML, like Gecko) Chrome/29.0.1547.65 Safari/537.36</div></td></tr><tr><td style="font-weight:bold;vertical-align:top;">PATH_INFO</td><td style="vertical-align:top;">:</td><td><div>/Cifra/default/index</div></td></tr><tr><td style="font-weight:bold;vertical-align:top;">QUERY_STRING</td><td style="vertical-align:top;">:</td><td><div></div></td></tr><tr><td style="font-weight:bold;vertical-align:top;">REMOTE_ADDR</td><td style="vertical-align:top;">:</td><td><div>127.0.0.1</div></td></tr><tr><td style="font-weight:bold;vertical-align:top;">REMOTE_PORT</td><td style="vertical-align:top;">:</td><td><div>59193</div></td></tr><tr><td style="font-weight:bold;vertical-align:top;">REQUEST_METHOD</td><td style="vertical-align:top;">:</td><td><div>POST</div></td></tr><tr><td style="font-weight:bold;vertical-align:top;">SCRIPT_NAME</td><td style="vertical-align:top;">:</td><td><div></div></td></tr><tr><td style="font-weight:bold;vertical-align:top;">SERVER_NAME</td><td style="vertical-align:top;">:</td><td><div>MacBook-Pro-de-Joao.local</div></td></tr><tr><td style="font-weight:bold;vertical-align:top;">SERVER_PORT</td><td style="vertical-align:top;">:</td><td><div>8000</div></td></tr><tr><td style="font-weight:bold;vertical-align:top;">SERVER_PROTOCOL</td><td style="vertical-align:top;">:</td><td><div>HTTP/1.1</div></td></tr><tr><td style="font-weight:bold;vertical-align:top;">SERVER_SOFTWARE</td><td style="vertical-align:top;">:</td><td><div>Rocket 1.2.6</div></td></tr><tr><td style="font-weight:bold;vertical-align:top;">app_folders</td><td style="vertical-align:top;">:</td><td><div>set([&#x27;/Users/JoaoBtte/Documents/python/Hello/applications/admin/&#x27;, &#x27;/Users/JoaoBtte/Documents/python/Hello/applications/welcome/&#x27;, &#x27;/Users/JoaoBtte/Documents/python/Hello/applications/Cifra/&#x27;])</div></td></tr><tr><td style="font-weight:bold;vertical-align:top;">applications_parent</td><td style="vertical-align:top;">:</td><td><div>/Users/JoaoBtte/Documents/python/Hello</div></td></tr><tr><td style="font-weight:bold;vertical-align:top;">cmd_args</td><td style="vertical-align:top;">:</td><td><div><table></table></div></td></tr><tr><td style="font-weight:bold;vertical-align:top;">cmd_options</td><td style="vertical-align:top;">:</td><td><div>&lt;Values at 0x1044cda28: {&#x27;verbose&#x27;: False, &#x27;ip&#x27;: &#x27;127.0.0.1&#x27;, &#x27;debuglevel&#x27;: 30, &#x27;with_scheduler&#x27;: False, &#x27;ips&#x27;: [&#x27;fe80::22c9:d0ff:fed9:645f%en1&#x27;, &#x27;192.168.0.22&#x27;], &#x27;shutdown_timeout&#x27;: 5, &#x27;taskbar&#x27;: False, &#x27;with_coverage&#x27;: False, &#x27;port&#x27;: 8000, &#x27;maxthreads&#x27;: None, &#x27;softcron&#x27;: False, &#x27;server_name&#x27;: &#x27;MacBook-Pro-de-Joao.local&#x27;, &#x27;bpython&#x27;: False, &#x27;nogui&#x27;: False, &#x27;pid_filename&#x27;: &#x27;httpserver.pid&#x27;, &#x27;extcron&#x27;: False, &#x27;runcron&#x27;: False, &#x27;run_system_tests&#x27;: False, &#x27;test&#x27;: None, &#x27;folder&#x27;: &#x27;/Users/JoaoBtte/Documents/python/Hello&#x27;, &#x27;config&#x27;: &#x27;&#x27;, &#x27;minthreads&#x27;: None, &#x27;winservice&#x27;: &#x27;&#x27;, &#x27;shell&#x27;: None, &#x27;run&#x27;: &#x27;&#x27;, &#x27;log_filename&#x27;: &#x27;httpserver.log&#x27;, &#x27;profiler_dir&#x27;: None, &#x27;args&#x27;: [&#x27;&#x27;], &#x27;socket_timeout&#x27;: 5, &#x27;ssl_ca_certificate&#x27;: None, &#x27;scheduler&#x27;: None, &#x27;interfaces&#x27;: None, &#x27;ssl_private_key&#x27;: &#x27;&#x27;, &#x27;scheduler_groups&#x27;: None, &#x27;password&#x27;: &#x27;&lt;ask&gt;&#x27;, &#x27;request_queue_size&#x27;: 5, &#x27;ssl_certificate&#x27;: &#x27;&#x27;, &#x27;cronjob&#x27;: False, &#x27;numthreads&#x27;: None, &#x27;quiet&#x27;: False, &#x27;import_models&#x27;: False, &#x27;timeout&#x27;: 10, &#x27;plain&#x27;: False, &#x27;nobanner&#x27;: False}&gt;</div></td></tr><tr><td style="font-weight:bold;vertical-align:top;">content_length</td><td style="vertical-align:top;">:</td><td><div>427</div></td></tr><tr><td style="font-weight:bold;vertical-align:top;">content_type</td><td style="vertical-align:top;">:</td><td><div>multipart/form-data; boundary=----WebKitFormBoundaryrfFYL6OVacbUzXs1</div></td></tr><tr><td style="font-weight:bold;vertical-align:top;">db_sessions</td><td style="vertical-align:top;">:</td><td><div>set([])</div></td></tr><tr><td style="font-weight:bold;vertical-align:top;">debugging</td><td style="vertical-align:top;">:</td><td><div>True</div></td></tr><tr><td style="font-weight:bold;vertical-align:top;">gluon_parent</td><td style="vertical-align:top;">:</td><td><div>/Users/JoaoBtte/Documents/python/Hello</div></td></tr><tr><td style="font-weight:bold;vertical-align:top;">http_accept</td><td style="vertical-align:top;">:</td><td><div>text/html,application/xhtml+xml,application/xml;q=0.9,*/*;q=0.8</div></td></tr><tr><td style="font-weight:bold;vertical-align:top;">http_accept_encoding</td><td style="vertical-align:top;">:</td><td><div>gzip,deflate,sdch</div></td></tr><tr><td style="font-weight:bold;vertical-align:top;">http_accept_language</td><td style="vertical-align:top;">:</td><td><div>pt-BR,pt;q=0.8,en-US;q=0.6,en;q=0.4</div></td></tr><tr><td style="font-weight:bold;vertical-align:top;">http_cache_control</td><td style="vertical-align:top;">:</td><td><div>max-age=0</div></td></tr><tr><td style="font-weight:bold;vertical-align:top;">http_connection</td><td style="vertical-align:top;">:</td><td><div>keep-alive</div></td></tr><tr><td style="font-weight:bold;vertical-align:top;">http_content_length</td><td style="vertical-align:top;">:</td><td><div>427</div></td></tr><tr><td style="font-weight:bold;vertical-align:top;">http_content_type</td><td style="vertical-align:top;">:</td><td><div>multipart/form-data; boundary=----WebKitFormBoundaryrfFYL6OVacbUzXs1</div></td></tr><tr><td style="font-weight:bold;vertical-align:top;">http_cookie</td><td style="vertical-align:top;">:</td><td><div>session_id_welcome=127.0.0.1-d3b98bee-3c8d-49a8-b6e4-e18c612d201a; session_id_admin=127.0.0.1-4274dca4-1eac-4efb-b963-f405572e84d7; session_id_cifra=127.0.0.1-d107fe7e-5827-43f8-8fac-0f99228e14f9</div></td></tr><tr><td style="font-weight:bold;vertical-align:top;">http_host</td><td style="vertical-align:top;">:</td><td><div>127.0.0.1:8000</div></td></tr><tr><td style="font-weight:bold;vertical-align:top;">http_origin</td><td style="vertical-align:top;">:</td><td><div>http://127.0.0.1:8000</div></td></tr><tr><td style="font-weight:bold;vertical-align:top;">http_referer</td><td style="vertical-align:top;">:</td><td><div>http://127.0.0.1:8000/Cifra/default/index</div></td></tr><tr><td style="font-weight:bold;vertical-align:top;">http_user_agent</td><td style="vertical-align:top;">:</td><td><div>Mozilla/5.0 (Macintosh; Intel Mac OS X 10_8_4) AppleWebKit/537.36 (KHTML, like Gecko) Chrome/29.0.1547.65 Safari/537.36</div></td></tr><tr><td style="font-weight:bold;vertical-align:top;">is_jython</td><td style="vertical-align:top;">:</td><td><div>False</div></td></tr><tr><td style="font-weight:bold;vertical-align:top;">is_pypy</td><td style="vertical-align:top;">:</td><td><div>False</div></td></tr><tr><td style="font-weight:bold;vertical-align:top;">is_source</td><td style="vertical-align:top;">:</td><td><div>True</div></td></tr><tr><td style="font-weight:bold;vertical-align:top;">local_hosts</td><td style="vertical-align:top;">:</td><td><div><table><tr><td><div>fe80::22c9:d0ff:fed9:645f%en1</div></td></tr><tr><td><div>::ffff:127.0.0.1</div></td></tr><tr><td><div>::1</div></td></tr><tr><td><div>192.168.0.22</div></td></tr><tr><td><div>MacBook-Pro-de-Joao.local</div></td></tr><tr><td><div>127.0.0.1</div></td></tr></table></div></td></tr><tr><td style="font-weight:bold;vertical-align:top;">path_info</td><td style="vertical-align:top;">:</td><td><div>/Cifra/default/index</div></td></tr><tr><td style="font-weight:bold;vertical-align:top;">query_string</td><td style="vertical-align:top;">:</td><td><div></div></td></tr><tr><td style="font-weight:bold;vertical-align:top;">remote_addr</td><td style="vertical-align:top;">:</td><td><div>127.0.0.1</div></td></tr><tr><td style="font-weight:bold;vertical-align:top;">remote_port</td><td style="vertical-align:top;">:</td><td><div>59193</div></td></tr><tr><td style="font-weight:bold;vertical-align:top;">request_method</td><td style="vertical-align:top;">:</td><td><div>POST</div></td></tr><tr><td style="font-weight:bold;vertical-align:top;">request_uri</td><td style="vertical-align:top;">:</td><td><div>/Cifra/default/index</div></td></tr><tr><td style="font-weight:bold;vertical-align:top;">script_name</td><td style="vertical-align:top;">:</td><td><div></div></td></tr><tr><td style="font-weight:bold;vertical-align:top;">server_name</td><td style="vertical-align:top;">:</td><td><div>MacBook-Pro-de-Joao.local</div></td></tr><tr><td style="font-weight:bold;vertical-align:top;">server_port</td><td style="vertical-align:top;">:</td><td><div>8000</div></td></tr><tr><td style="font-weight:bold;vertical-align:top;">server_protocol</td><td style="vertical-align:top;">:</td><td><div>HTTP/1.1</div></td></tr><tr><td style="font-weight:bold;vertical-align:top;">server_software</td><td style="vertical-align:top;">:</td><td><div>Rocket 1.2.6</div></td></tr><tr><td style="font-weight:bold;vertical-align:top;">web2py_path</td><td style="vertical-align:top;">:</td><td><div>/Users/JoaoBtte/Documents/python/Hello</div></td></tr><tr><td style="font-weight:bold;vertical-align:top;">web2py_version</td><td style="vertical-align:top;">:</td><td><div>2.6.2-stable+timestamp.2013.09.13.22.53.04</div></td></tr><tr><td style="font-weight:bold;vertical-align:top;">wsgi.errors</td><td style="vertical-align:top;">:</td><td><div>&lt;open file &#x27;&lt;stderr&gt;&#x27;, mode &#x27;w&#x27; at 0x103977270&gt;</div></td></tr><tr><td style="font-weight:bold;vertical-align:top;">wsgi.file_wrapper</td><td style="vertical-align:top;">:</td><td><div>&lt;class wsgiref.util.FileWrapper at 0x104904328&gt;</div></td></tr><tr><td style="font-weight:bold;vertical-align:top;">wsgi.input</td><td style="vertical-align:top;">:</td><td><div>&lt;socket._fileobject object at 0x104cd68d0&gt;</div></td></tr><tr><td style="font-weight:bold;vertical-align:top;">wsgi.multiprocess</td><td style="vertical-align:top;">:</td><td><div>False</div></td></tr><tr><td style="font-weight:bold;vertical-align:top;">wsgi.multithread</td><td style="vertical-align:top;">:</td><td><div>True</div></td></tr><tr><td style="font-weight:bold;vertical-align:top;">wsgi.run_once</td><td style="vertical-align:top;">:</td><td><div>False</div></td></tr><tr><td style="font-weight:bold;vertical-align:top;">wsgi.url_scheme</td><td style="vertical-align:top;">:</td><td><div>http</div></td></tr><tr><td style="font-weight:bold;vertical-align:top;">wsgi.version</td><td style="vertical-align:top;">:</td><td><div><table><tr><td><div>1</div></td></tr><tr><td><div>0</div></td></tr></table></div></td></tr><tr><td style="font-weight:bold;vertical-align:top;">wsgi_errors</td><td style="vertical-align:top;">:</td><td><div>&lt;open file &#x27;&lt;stderr&gt;&#x27;, mode &#x27;w&#x27; at 0x103977270&gt;</div></td></tr><tr><td style="font-weight:bold;vertical-align:top;">wsgi_file_wrapper</td><td style="vertical-align:top;">:</td><td><div>&lt;class wsgiref.util.FileWrapper at 0x104904328&gt;</div></td></tr><tr><td style="font-weight:bold;vertical-align:top;">wsgi_input</td><td style="vertical-align:top;">:</td><td><div>&lt;socket._fileobject object at 0x104cd68d0&gt;</div></td></tr><tr><td style="font-weight:bold;vertical-align:top;">wsgi_multiprocess</td><td style="vertical-align:top;">:</td><td><div>False</div></td></tr><tr><td style="font-weight:bold;vertical-align:top;">wsgi_multithread</td><td style="vertical-align:top;">:</td><td><div>True</div></td></tr><tr><td style="font-weight:bold;vertical-align:top;">wsgi_run_once</td><td style="vertical-align:top;">:</td><td><div>False</div></td></tr><tr><td style="font-weight:bold;vertical-align:top;">wsgi_url_scheme</td><td style="vertical-align:top;">:</td><td><div>http</div></td></tr><tr><td style="font-weight:bold;vertical-align:top;">wsgi_version</td><td style="vertical-align:top;">:</td><td><div><table><tr><td><div>1</div></td></tr><tr><td><div>0</div></td></tr></table></div></td></tr></table></div></td></tr><tr><td style="font-weight:bold;vertical-align:top;">extension</td><td style="vertical-align:top;">:</td><td><div>html</div></td></tr><tr><td style="font-weight:bold;vertical-align:top;">folder</td><td style="vertical-align:top;">:</td><td><div>/Users/JoaoBtte/Documents/python/Hello/applications/Cifra/</div></td></tr><tr><td style="font-weight:bold;vertical-align:top;">function</td><td style="vertical-align:top;">:</td><td><div>index</div></td></tr><tr><td style="font-weight:bold;vertical-align:top;">global_settings</td><td style="vertical-align:top;">:</td><td><div><table><tr><td style="font-weight:bold;vertical-align:top;">app_folders</td><td style="vertical-align:top;">:</td><td><div>set([&#x27;/Users/JoaoBtte/Documents/python/Hello/applications/admin/&#x27;, &#x27;/Users/JoaoBtte/Documents/python/Hello/applications/welcome/&#x27;, &#x27;/Users/JoaoBtte/Documents/python/Hello/applications/Cifra/&#x27;])</div></td></tr><tr><td style="font-weight:bold;vertical-align:top;">applications_parent</td><td style="vertical-align:top;">:</td><td><div>/Users/JoaoBtte/Documents/python/Hello</div></td></tr><tr><td style="font-weight:bold;vertical-align:top;">cmd_args</td><td style="vertical-align:top;">:</td><td><div><table></table></div></td></tr><tr><td style="font-weight:bold;vertical-align:top;">cmd_options</td><td style="vertical-align:top;">:</td><td><div>&lt;Values at 0x1044cda28: {&#x27;verbose&#x27;: False, &#x27;ip&#x27;: &#x27;127.0.0.1&#x27;, &#x27;debuglevel&#x27;: 30, &#x27;with_scheduler&#x27;: False, &#x27;ips&#x27;: [&#x27;fe80::22c9:d0ff:fed9:645f%en1&#x27;, &#x27;192.168.0.22&#x27;], &#x27;shutdown_timeout&#x27;: 5, &#x27;taskbar&#x27;: False, &#x27;with_coverage&#x27;: False, &#x27;port&#x27;: 8000, &#x27;maxthreads&#x27;: None, &#x27;softcron&#x27;: False, &#x27;server_name&#x27;: &#x27;MacBook-Pro-de-Joao.local&#x27;, &#x27;bpython&#x27;: False, &#x27;nogui&#x27;: False, &#x27;pid_filename&#x27;: &#x27;httpserver.pid&#x27;, &#x27;extcron&#x27;: False, &#x27;runcron&#x27;: False, &#x27;run_system_tests&#x27;: False, &#x27;test&#x27;: None, &#x27;folder&#x27;: &#x27;/Users/JoaoBtte/Documents/python/Hello&#x27;, &#x27;config&#x27;: &#x27;&#x27;, &#x27;minthreads&#x27;: None, &#x27;winservice&#x27;: &#x27;&#x27;, &#x27;shell&#x27;: None, &#x27;run&#x27;: &#x27;&#x27;, &#x27;log_filename&#x27;: &#x27;httpserver.log&#x27;, &#x27;profiler_dir&#x27;: None, &#x27;args&#x27;: [&#x27;&#x27;], &#x27;socket_timeout&#x27;: 5, &#x27;ssl_ca_certificate&#x27;: None, &#x27;scheduler&#x27;: None, &#x27;interfaces&#x27;: None, &#x27;ssl_private_key&#x27;: &#x27;&#x27;, &#x27;scheduler_groups&#x27;: None, &#x27;password&#x27;: &#x27;&lt;ask&gt;&#x27;, &#x27;request_queue_size&#x27;: 5, &#x27;ssl_certificate&#x27;: &#x27;&#x27;, &#x27;cronjob&#x27;: False, &#x27;numthreads&#x27;: None, &#x27;quiet&#x27;: False, &#x27;import_models&#x27;: False, &#x27;timeout&#x27;: 10, &#x27;plain&#x27;: False, &#x27;nobanner&#x27;: False}&gt;</div></td></tr><tr><td style="font-weight:bold;vertical-align:top;">db_sessions</td><td style="vertical-align:top;">:</td><td><div>set([])</div></td></tr><tr><td style="font-weight:bold;vertical-align:top;">debugging</td><td style="vertical-align:top;">:</td><td><div>True</div></td></tr><tr><td style="font-weight:bold;vertical-align:top;">gluon_parent</td><td style="vertical-align:top;">:</td><td><div>/Users/JoaoBtte/Documents/python/Hello</div></td></tr><tr><td style="font-weight:bold;vertical-align:top;">is_jython</td><td style="vertical-align:top;">:</td><td><div>False</div></td></tr><tr><td style="font-weight:bold;vertical-align:top;">is_pypy</td><td style="vertical-align:top;">:</td><td><div>False</div></td></tr><tr><td style="font-weight:bold;vertical-align:top;">is_source</td><td style="vertical-align:top;">:</td><td><div>True</div></td></tr><tr><td style="font-weight:bold;vertical-align:top;">local_hosts</td><td style="vertical-align:top;">:</td><td><div><table><tr><td><div>fe80::22c9:d0ff:fed9:645f%en1</div></td></tr><tr><td><div>::ffff:127.0.0.1</div></td></tr><tr><td><div>::1</div></td></tr><tr><td><div>192.168.0.22</div></td></tr><tr><td><div>MacBook-Pro-de-Joao.local</div></td></tr><tr><td><div>127.0.0.1</div></td></tr></table></div></td></tr><tr><td style="font-weight:bold;vertical-align:top;">web2py_version</td><td style="vertical-align:top;">:</td><td><div>2.6.2-stable+timestamp.2013.09.13.22.53.04</div></td></tr></table></div></td></tr><tr><td style="font-weight:bold;vertical-align:top;">is_https</td><td style="vertical-align:top;">:</td><td><div>False</div></td></tr><tr><td style="font-weight:bold;vertical-align:top;">is_local</td><td style="vertical-align:top;">:</td><td><div>True</div></td></tr><tr><td style="font-weight:bold;vertical-align:top;">is_restful</td><td style="vertical-align:top;">:</td><td><div>False</div></td></tr><tr><td style="font-weight:bold;vertical-align:top;">now</td><td style="vertical-align:top;">:</td><td><div>datetime.datetime(2013, 9, 19, 14, 30, 53, 607469)</div></td></tr><tr><td style="font-weight:bold;vertical-align:top;">raw_args</td><td style="vertical-align:top;">:</td><td><div></div></td></tr><tr><td style="font-weight:bold;vertical-align:top;">raw_extension</td><td style="vertical-align:top;">:</td><td><div>None</div></td></tr><tr><td style="font-weight:bold;vertical-align:top;">url</td><td style="vertical-align:top;">:</td><td><div>/Cifra/default/index</div></td></tr><tr><td style="font-weight:bold;vertical-align:top;">utcnow</td><td style="vertical-align:top;">:</td><td><div>datetime.datetime(2013, 9, 19, 17, 30, 53, 607483)</div></td></tr><tr><td style="font-weight:bold;vertical-align:top;">uuid</td><td style="vertical-align:top;">:</td><td><div>Cifra/127.0.0.1.2013-09-19.14-30-53.144d0277-88a5-4c8b-9d83-08d915c89ffa</div></td></tr><tr><td style="font-weight:bold;vertical-align:top;">wsgi</td><td style="vertical-align:top;">:</td><td><div>&lt;gluon.main.LazyWSGI object at 0x1045a5890&gt;</div></td></tr></table></div>'
tRp56
sS'frames'
p57
(lp58
(dp59
S'file'
p60
S'/Users/JoaoBtte/Documents/python/Hello/gluon/main.py'
p61
sS'dump'
p62
(dp63
S'session._try_store_in_cookie_or_file'
p64
S"<bound method Session._try_store_in_cookie_or_fi... cora\xc3\xa7\xc3\xa3o</pre>\n</div>, 'banda': ' Banda Eva'}>>"
p65
sS'session'
p66
S"<Storage {'letra': '\\n\\r\\nTom: D\\r\\n\\t\\t\\nA9    ...u cora\xc3\xa7\xc3\xa3o</pre>\n</div>, 'banda': ' Banda Eva'}>"
p67
sS'request'
p68
S"<Storage {'_vars': None, 'function': 'index', 'c...tte/Documents/python/Hello/applications/Cifra/'}>"
p69
sS'response'
p70
S"<Storage {'body': <cStringIO.StringO object at 0...> at 0x10a0152a8>, 'view': 'default/index.html'}>"
p71
ssS'lnum'
p72
I486
sS'lines'
p73
(dp74
I481
S'                    # ##################################################'
p75
sI482
S'                    # if session not in db try store session on filesystem'
p76
sI483
S'                    # this must be done after trying to commit database!'
p77
sI484
S'                    # ##################################################'
p78
sI485
S''
sI486
S'                    session._try_store_in_cookie_or_file(request, response)'
p79
sI487
S''
sI488
S'                    # Set header so client can distinguish component requests.'
p80
sI489
S'                    if request.cid:'
p81
sI490
S'                        http_response.headers.setdefault('
p82
ssS'call'
p83
S"(environ={'CONTENT_LENGTH': '427', 'CONTENT_TYPE': 'multipart/form-data; boundary=----WebKitFormBoundaryrfFYL6OVacbUzXs1', 'HTTP_ACCEPT': 'text/html,application/xhtml+xml,application/xml;q=0.9,*/*;q=0.8', 'HTTP_ACCEPT_ENCODING': 'gzip,deflate,sdch', 'HTTP_ACCEPT_LANGUAGE': 'pt-BR,pt;q=0.8,en-US;q=0.6,en;q=0.4', 'HTTP_CACHE_CONTROL': 'max-age=0', 'HTTP_CONNECTION': 'keep-alive', 'HTTP_CONTENT_LENGTH': '427', 'HTTP_CONTENT_TYPE': 'multipart/form-data; boundary=----WebKitFormBoundaryrfFYL6OVacbUzXs1', 'HTTP_COOKIE': 'session_id_welcome=127.0.0.1-d3b98bee-3c8d-49a8-...ra=127.0.0.1-d107fe7e-5827-43f8-8fac-0f99228e14f9', ...}, responder=<function responder2>)"
p84
sS'func'
p85
S'wsgibase'
p86
sa(dp87
g60
S'/Users/JoaoBtte/Documents/python/Hello/gluon/globals.py'
p88
sg62
(dp89
S'self._try_store_in_file'
p90
S"<bound method Session._try_store_in_file of <Sto... cora\xc3\xa7\xc3\xa3o</pre>\n</div>, 'banda': ' Banda Eva'}>>"
p91
sS'self'
p92
S"<Storage {'letra': '\\n\\r\\nTom: D\\r\\n\\t\\t\\nA9    ...u cora\xc3\xa7\xc3\xa3o</pre>\n</div>, 'banda': ' Banda Eva'}>"
p93
sS'request'
p94
S"<Storage {'_vars': None, 'function': 'index', 'c...tte/Documents/python/Hello/applications/Cifra/'}>"
p95
sS'response'
p96
S"<Storage {'body': <cStringIO.StringO object at 0...> at 0x10a0152a8>, 'view': 'default/index.html'}>"
p97
ssg72
I1047
sg73
(dp98
I1042
S'        self.save_session_id_cookie()'
p99
sI1043
S'        return True'
p100
sI1044
S''
sI1045
S'    def _try_store_in_cookie_or_file(self, request, response):'
p101
sI1046
S"        if response.session_storage_type == 'file':"
p102
sI1047
S'            return self._try_store_in_file(request, response)'
p103
sI1048
S"        if response.session_storage_type == 'cookie':"
p104
sI1049
S'            return self._try_store_in_cookie(request, response)'
p105
sI1050
S''
sI1051
S'    def _try_store_in_file(self, request, response):'
p106
ssg83
S"(self=<Storage {'letra': '\\n\\r\\nTom: D\\r\\n\\t\\t\\nA9    ...u cora\xc3\xa7\xc3\xa3o</pre>\n</div>, 'banda': ' Banda Eva'}>, request=<Storage {'_vars': None, 'function': 'index', 'c...tte/Documents/python/Hello/applications/Cifra/'}>, response=<Storage {'body': <cStringIO.StringO object at 0...> at 0x10a0152a8>, 'view': 'default/index.html'}>)"
p107
sg85
S'_try_store_in_cookie_or_file'
p108
sa(dp109
g60
S'/Users/JoaoBtte/Documents/python/Hello/gluon/globals.py'
p110
sg62
(dp111
S'self._unchanged'
p112
S"<bound method Session._unchanged of <Storage {'l... cora\xc3\xa7\xc3\xa3o</pre>\n</div>, 'banda': ' Banda Eva'}>>"
p113
sS'response.session_id'
p114
S"'127.0.0.1-d107fe7e-5827-43f8-8fac-0f99228e14f9'"
p115
sS'self._forget'
p116
S'None'
p117
sS'response'
p118
S"<Storage {'body': <cStringIO.StringO object at 0...> at 0x10a0152a8>, 'view': 'default/index.html'}>"
p119
sS'self'
p120
S"<Storage {'letra': '\\n\\r\\nTom: D\\r\\n\\t\\t\\nA9    ...u cora\xc3\xa7\xc3\xa3o</pre>\n</div>, 'banda': ' Banda Eva'}>"
p121
ssg72
I1053
sg73
(dp122
I1056
S'            if response.session_new or not response.session_file:'
p123
sI1057
S'                # Tests if the session sub-folder exists, if not, create it'
p124
sI1048
S"        if response.session_storage_type == 'cookie':"
p125
sI1049
S'            return self._try_store_in_cookie(request, response)'
p126
sI1050
S''
sI1051
S'    def _try_store_in_file(self, request, response):'
p127
sI1052
S'        try:'
p128
sI1053
S'            if not response.session_id or self._forget or self._unchanged(response):'
p129
sI1054
S'                self.save_session_id_cookie()'
p130
sI1055
S'                return False'
p131
ssg83
S"(self=<Storage {'letra': '\\n\\r\\nTom: D\\r\\n\\t\\t\\nA9    ...u cora\xc3\xa7\xc3\xa3o</pre>\n</div>, 'banda': ' Banda Eva'}>, request=<Storage {'_vars': None, 'function': 'index', 'c...tte/Documents/python/Hello/applications/Cifra/'}>, response=<Storage {'body': <cStringIO.StringO object at 0...> at 0x10a0152a8>, 'view': 'default/index.html'}>)"
p132
sg85
S'_try_store_in_file'
p133
sa(dp134
g60
S'/Users/JoaoBtte/Documents/python/Hello/gluon/globals.py'
p135
sg62
(dp136
S'self'
p137
S"<Storage {'letra': '\\n\\r\\nTom: D\\r\\n\\t\\t\\nA9    ...u cora\xc3\xa7\xc3\xa3o</pre>\n</div>, 'banda': ' Banda Eva'}>"
p138
sS'cPickle.dumps'
p139
S'<built-in function dumps>'
p140
sS'session_pickled'
p141
S'undefined'
p142
sS'global cPickle'
p143
S"<module 'cPickle' from '/System/Library/Framewor...rsions/2.7/lib/python2.7/lib-dynload/cPickle.so'>"
p144
ssg72
I1001
sg73
(dp145
I996
S'        if expires:'
p146
sI997
S"            rcookies[name]['expires'] = expires.strftime(FMT)"
p147
sI998
S'        return True'
p148
sI999
S''
sI1000
S'    def _unchanged(self,response):'
p149
sI1001
S'        session_pickled = cPickle.dumps(self)'
p150
sI1002
S'        response.session_pickled = session_pickled'
p151
sI1003
S'        session_hash = hashlib.md5(session_pickled).hexdigest()'
p152
sI1004
S'        return response.session_hash == session_hash'
p153
sI1005
S''
ssg83
S"(self=<Storage {'letra': '\\n\\r\\nTom: D\\r\\n\\t\\t\\nA9    ...u cora\xc3\xa7\xc3\xa3o</pre>\n</div>, 'banda': ' Banda Eva'}>, response=<Storage {'body': <cStringIO.StringO object at 0...> at 0x10a0152a8>, 'view': 'default/index.html'}>)"
p154
sg85
S'_unchanged'
p155
sa(dp156
g60
S'/System/Library/Frameworks/Python.framework/Versions/2.7/lib/python2.7/copy_reg.py'
p157
sg62
(dp158
S'self'
p159
S'<div class="g-960" id="topo"> <h1><a href="/"> C...fras<b></b></span></a></div> </div> </div> </div>'
p160
sS'getstate'
p161
g142
sS'self.__getstate__'
p162
g142
ssg72
I74
sg73
(dp163
I69
S'        if base is self.__class__:'
p164
sI70
S'            raise TypeError, "can\'t pickle %s objects" % base.__name__'
p165
sI71
S'        state = base(self)'
p166
sI72
S'    args = (self.__class__, base, state)'
p167
sI73
S'    try:'
p168
sI74
S'        getstate = self.__getstate__'
p169
sI75
S'    except AttributeError:'
p170
sI76
S'        if getattr(self, "__slots__", None):'
p171
sI77
S'            raise TypeError("a class that defines __slots__ without "'
p172
sI78
S'                            "defining __getstate__ cannot be pickled")'
p173
ssg83
S'(self=<div class="g-960" id="topo"> <h1><a href="/"> C...fras<b></b></span></a></div> </div> </div> </div>, proto=0)'
p174
sg85
S'_reduce_ex'
p175
sa(dp176
g60
S'/Library/Python/2.7/site-packages/bs4/element.py'
p177
sg62
(dp178
S'self'
p179
S'<div class="g-960" id="topo"> <h1><a href="/"> C...fras<b></b></span></a></div> </div> </div> </div>'
p180
sS'tag'
p181
S"'__getstate__'"
p182
sS'__getattr__'
p183
g142
ssg72
I937
sg73
(dp184
I932
S'        """Calling a tag like a function is the same as calling its'
p185
sI933
S"        find_all() method. Eg. tag('a') returns a list of all the A tags"
p186
sI934
S'        found within this tag."""'
p187
sI935
S'        return self.find_all(*args, **kwargs)'
p188
sI936
S''
sI937
S'    def __getattr__(self, tag):'
p189
sI938
S'        #print "Getattr %s.%s" % (self.__class__, tag)'
p190
sI939
S"        if len(tag) > 3 and tag.endswith('Tag'):"
p191
sI940
S'            # BS3: soup.aTag -> "soup.find("a")'
p192
sI941
S'            tag_name = tag[:-3]'
p193
ssg83
S'(self=<div class="g-960" id="topo"> <h1><a href="/"> C...fras<b></b></span></a></div> </div> </div> </div>, tag=\'__getstate__\')'
p194
sg85
S'__getattr__'
p195
sa(dp196
g60
S'/Users/JoaoBtte/Documents/python/Hello/gluon/contrib/qdb.py'
p197
sg62
(dp198
S'self'
p199
S'<gluon.contrib.qdb.Qdb instance>'
p200
sS'self.dispatch_call'
p201
S'<bound method Qdb.dispatch_call of <gluon.contrib.qdb.Qdb instance>>'
p202
sS'frame'
p203
S'<frame object>'
p204
sS'arg'
p205
S'None'
p206
ssg72
I91
sg73
(dp207
I86
S'        if self.quitting:'
p208
sI87
S'            return  # None'
p209
sI88
S"        if event == 'line':"
p210
sI89
S'            return self.dispatch_line(frame)'
p211
sI90
S"        if event == 'call':"
p212
sI91
S'            return self.dispatch_call(frame, arg)'
p213
sI92
S"        if event == 'return':"
p214
sI93
S'            return self.dispatch_return(frame, arg)'
p215
sI94
S"        if event == 'exception':"
p216
sI95
S'            return self.dispatch_exception(frame, arg)'
p217
ssg83
S"(self=<gluon.contrib.qdb.Qdb instance>, frame=<frame object>, event='call', arg=None)"
p218
sg85
S'trace_dispatch'
p219
sa(dp220
g60
S'/System/Library/Frameworks/Python.framework/Versions/2.7/lib/python2.7/bdb.py'
p221
sg62
(dp222
S'self'
p223
S'<gluon.contrib.qdb.Qdb instance>'
p224
sS'self.stop_here'
p225
S'<bound method Qdb.stop_here of <gluon.contrib.qdb.Qdb instance>>'
p226
sS'self.break_anywhere'
p227
S'<bound method Qdb.break_anywhere of <gluon.contrib.qdb.Qdb instance>>'
p228
sS'frame'
p229
S'<frame object>'
p230
ssg72
I76
sg73
(dp231
I71
S"        # XXX 'arg' is no longer used"
p232
sI72
S'        if self.botframe is None:'
p233
sI73
S'            # First call of dispatch since reset()'
p234
sI74
S'            self.botframe = frame.f_back # (CT) Note that this may also be None!'
p235
sI75
S'            return self.trace_dispatch'
p236
sI76
S'        if not (self.stop_here(frame) or self.break_anywhere(frame)):'
p237
sI77
S'            # No need to trace this function'
p238
sI78
S'            return # None'
p239
sI79
S'        self.user_call(frame, arg)'
p240
sI80
S'        if self.quitting: raise BdbQuit'
p241
ssg83
S'(self=<gluon.contrib.qdb.Qdb instance>, frame=<frame object>, arg=None)'
p242
sg85
S'dispatch_call'
p243
sa(dp244
g60
S'/System/Library/Frameworks/Python.framework/Versions/2.7/lib/python2.7/bdb.py'
p245
sg62
(dp246
S'frame.f_code.co_filename'
p247
S"'/Library/Python/2.7/site-packages/bs4/element.py'"
p248
sS'self'
p249
S'<gluon.contrib.qdb.Qdb instance>'
p250
sS'self.breaks'
p251
g43
sS'self.canonic'
p252
S'<bound method Qdb.canonic of <gluon.contrib.qdb.Qdb instance>>'
p253
sS'frame'
p254
S'<frame object>'
p255
sS'frame.f_code'
p256
S'<code object __getattr__ at 0x104858ab0, file "/...thon/2.7/site-packages/bs4/element.py", line 937>'
p257
ssg72
I147
sg73
(dp258
I142
S''
sI143
S'    def do_clear(self, arg):'
p259
sI144
S'        raise NotImplementedError, "subclass of bdb must implement do_clear()"'
p260
sI145
S''
sI146
S'    def break_anywhere(self, frame):'
p261
sI147
S'        return self.canonic(frame.f_code.co_filename) in self.breaks'
p262
sI148
S''
sI149
S'    # Derived classes should override the user_* methods'
p263
sI150
S'    # to gain control.'
p264
sI151
S''
ssg83
S'(self=<gluon.contrib.qdb.Qdb instance>, frame=<frame object>)'
p265
sg85
S'break_anywhere'
p266
sa(dp267
g60
S'/System/Library/Frameworks/Python.framework/Versions/2.7/lib/python2.7/bdb.py'
p268
sg62
(dp269
S'filename'
p270
S"'/Library/Python/2.7/site-packages/bs4/element.py'"
p271
ssg72
I29
sg73
(dp272
I32
S'        if not canonic:'
p273
sI33
S'            canonic = os.path.abspath(filename)'
p274
sI24
S'        self.skip = set(skip) if skip else None'
p275
sI25
S'        self.breaks = {}'
p276
sI26
S'        self.fncache = {}'
p277
sI27
S''
sI28
S'    def canonic(self, filename):'
p278
sI29
S'        if filename == "<" + filename[1:-1] + ">":'
p279
sI30
S'            return filename'
p280
sI31
S'        canonic = self.fncache.get(filename)'
p281
ssg83
S"(self=<gluon.contrib.qdb.Qdb instance>, filename='/Library/Python/2.7/site-packages/bs4/element.py')"
p282
sg85
S'canonic'
p283
sasS'pyver'
p284
S'Python 2.7.2: /usr/bin/python (prefix: /System/Library/Frameworks/Python.framework/Versions/2.7)'
p285
sS'session'
p286
g55
(S's\x9e\x10\x00\x00<div><table><tr><td style="font-weight:bold;vertical-align:top;">banda</td><td style="vertical-align:top;">:</td><td><div> Banda Eva</div></td></tr><tr><td style="font-weight:bold;vertical-align:top;">letra</td><td style="vertical-align:top;">:</td><td><div>\n\r\nTom: D\r\n\t\t\nA9               D9        A9    D9\nVou levar duas medidas na balan\xc3\xa7a\nA9               D9        F#m\nCaminhar entre avenidas do amor\n   D                  Bm\nVertentes que caem do c\xc3\xa9u\n  D                   Bm\nColares que tran\xc3\xa7am a flor\n   D9                 Bm        G   E4 E\nVerdades que doem no peito a raz\xc3\xa3o\n\nA9                 D9            A9    D9\nBom te ver doces momentos nessa estrada\nA9             D9          F#m\nBeira mar, acostamento j\xc3\xa1 se foi\n   D                    Bm\nPresentes que joguei no mar\n   D                Bm\nAs flores que l\xc3\xa1 deixei\n D              Bm                 G\nAinda me lembro como fosse hoje o adeus\n\n   E4 E\nVoltei\n\n   A                D\nS\xc3\xb3 vou querer ter voc\xc3\xaa aqui\n  C#7/4 C#7          F#m\nSorrindo te dar meu amor assim\n  D                  Bm                   G  E4 E\n\xc3\x89 claro que a vida ensina a gente a ser feliz\n  A                 D\nE vou te amar louco de paix\xc3\xa3o\n  C#7/4 C#7          F#m\nSe ainda me quer cheia de prazer\n   D                       Bm               G   E4 E\nEu sou um barco a vela e voc\xc3\xaa \xc3\xa9 o vento que leva\n        A\nMeu cora\xc3\xa7\xc3\xa3o\n</div></td></tr><tr><td style="font-weight:bold;vertical-align:top;">music</td><td style="vertical-align:top;">:</td><td><div>&lt;div id=&quot;cifra_cnt&quot;&gt;\n&lt;pre id=&quot;ct_tom_cifra&quot;&gt;\r\nTom: &lt;a class=&quot;sstooltip&quot; href=&quot;#&quot; id=&quot;cifra_troca_tom&quot; title=&quot;alterar o tom da cifra&quot;&gt;D&lt;/a&gt;\r\n\t\t&lt;/pre&gt;\n&lt;pre class=&quot;cifra-mono&quot; id=&quot;ct_cifra&quot;&gt;&lt;b&gt;A9&lt;/b&gt;               &lt;b&gt;D9&lt;/b&gt;        &lt;b&gt;A9&lt;/b&gt;    &lt;b&gt;D9&lt;/b&gt;\nVou levar duas medidas na balan\xc3\xa7a\n&lt;b&gt;A9&lt;/b&gt;               &lt;b&gt;D9&lt;/b&gt;        &lt;b&gt;F#m&lt;/b&gt;\nCaminhar entre avenidas do amor\n   &lt;b&gt;D&lt;/b&gt;                  &lt;b&gt;Bm&lt;/b&gt;\nVertentes que caem do c\xc3\xa9u\n  &lt;b&gt;D&lt;/b&gt;                   &lt;b&gt;Bm&lt;/b&gt;\nColares que tran\xc3\xa7am a flor\n   &lt;b&gt;D9&lt;/b&gt;                 &lt;b&gt;Bm&lt;/b&gt;        &lt;b&gt;G&lt;/b&gt;   &lt;b&gt;E4&lt;/b&gt; &lt;b&gt;E&lt;/b&gt;\nVerdades que doem no peito a raz\xc3\xa3o\n\n&lt;b&gt;A9&lt;/b&gt;                 &lt;b&gt;D9&lt;/b&gt;            &lt;b&gt;A9&lt;/b&gt;    &lt;b&gt;D9&lt;/b&gt;\nBom te ver doces momentos nessa estrada\n&lt;b&gt;A9&lt;/b&gt;             &lt;b&gt;D9&lt;/b&gt;          &lt;b&gt;F#m&lt;/b&gt;\nBeira mar, acostamento j\xc3\xa1 se foi\n   &lt;b&gt;D&lt;/b&gt;                    &lt;b&gt;Bm&lt;/b&gt;\nPresentes que joguei no mar\n   &lt;b&gt;D&lt;/b&gt;                &lt;b&gt;Bm&lt;/b&gt;\nAs flores que l\xc3\xa1 deixei\n &lt;b&gt;D&lt;/b&gt;              &lt;b&gt;Bm&lt;/b&gt;                 &lt;b&gt;G&lt;/b&gt;\nAinda me lembro como fosse hoje o adeus\n\n   &lt;b&gt;E4&lt;/b&gt; &lt;b&gt;E&lt;/b&gt;\nVoltei\n\n   &lt;b&gt;A&lt;/b&gt;                &lt;b&gt;D&lt;/b&gt;\nS\xc3\xb3 vou querer ter voc\xc3\xaa aqui\n  &lt;b&gt;C#7/4&lt;/b&gt; &lt;b&gt;C#7&lt;/b&gt;          &lt;b&gt;F#m&lt;/b&gt;\nSorrindo te dar meu amor assim\n  &lt;b&gt;D&lt;/b&gt;                  &lt;b&gt;Bm&lt;/b&gt;                   &lt;b&gt;G&lt;/b&gt;  &lt;b&gt;E4&lt;/b&gt; &lt;b&gt;E&lt;/b&gt;\n\xc3\x89 claro que a vida ensina a gente a ser feliz\n  &lt;b&gt;A&lt;/b&gt;                 &lt;b&gt;D&lt;/b&gt;\nE vou te amar louco de paix\xc3\xa3o\n  &lt;b&gt;C#7/4&lt;/b&gt; &lt;b&gt;C#7&lt;/b&gt;          &lt;b&gt;F#m&lt;/b&gt;\nSe ainda me quer cheia de prazer\n   &lt;b&gt;D&lt;/b&gt;                       &lt;b&gt;Bm&lt;/b&gt;               &lt;b&gt;G&lt;/b&gt;   &lt;b&gt;E4&lt;/b&gt; &lt;b&gt;E&lt;/b&gt;\nEu sou um barco a vela e voc\xc3\xaa \xc3\xa9 o vento que leva\n        &lt;b&gt;A&lt;/b&gt;\nMeu cora\xc3\xa7\xc3\xa3o&lt;/pre&gt;\n&lt;/div&gt;</div></td></tr><tr><td style="font-weight:bold;vertical-align:top;">name</td><td style="vertical-align:top;">:</td><td><div>Duas Medidas </div></td></tr><tr><td style="font-weight:bold;vertical-align:top;">nome_musica</td><td style="vertical-align:top;">:</td><td><div>Duas_Medidas</div></td></tr></table></div>'
tRp287
sS'etype'
p288
S"<type 'exceptions.RuntimeError'>"
p289
sS'date'
p290
S'Thu Sep 19 14:30:55 2013'
p291
sS'response'
p292
g55
(S's\xcc0\x00\x00<div><table><tr><td style="font-weight:bold;vertical-align:top;">body</td><td style="vertical-align:top;">:</td><td><div>&lt;cStringIO.StringO object at 0x10a0a2ca8&gt;</div></td></tr><tr><td style="font-weight:bold;vertical-align:top;">cookies</td><td style="vertical-align:top;">:</td><td><div><table><tr><td style="font-weight:bold;vertical-align:top;">session_id_cifra</td><td style="vertical-align:top;">:</td><td><div>127.0.0.1-d107fe7e-5827-43f8-8fac-0f99228e14f9<table><tr><td style="font-weight:bold;vertical-align:top;">comment</td><td style="vertical-align:top;">:</td><td><div></div></td></tr><tr><td style="font-weight:bold;vertical-align:top;">domain</td><td style="vertical-align:top;">:</td><td><div></div></td></tr><tr><td style="font-weight:bold;vertical-align:top;">expires</td><td style="vertical-align:top;">:</td><td><div></div></td></tr><tr><td style="font-weight:bold;vertical-align:top;">httponly</td><td style="vertical-align:top;">:</td><td><div></div></td></tr><tr><td style="font-weight:bold;vertical-align:top;">max-age</td><td style="vertical-align:top;">:</td><td><div></div></td></tr><tr><td style="font-weight:bold;vertical-align:top;">path</td><td style="vertical-align:top;">:</td><td><div>/</div></td></tr><tr><td style="font-weight:bold;vertical-align:top;">secure</td><td style="vertical-align:top;">:</td><td><div></div></td></tr><tr><td style="font-weight:bold;vertical-align:top;">version</td><td style="vertical-align:top;">:</td><td><div></div></td></tr></table></div></td></tr></table></div></td></tr><tr><td style="font-weight:bold;vertical-align:top;">delimiters</td><td style="vertical-align:top;">:</td><td><div><table><tr><td><div>{{</div></td></tr><tr><td><div>}}</div></td></tr></table></div></td></tr><tr><td style="font-weight:bold;vertical-align:top;">files</td><td style="vertical-align:top;">:</td><td><div><table></table></div></td></tr><tr><td style="font-weight:bold;vertical-align:top;">flash</td><td style="vertical-align:top;">:</td><td><div>Success!</div></td></tr><tr><td style="font-weight:bold;vertical-align:top;">generic_patterns</td><td style="vertical-align:top;">:</td><td><div><table></table></div></td></tr><tr><td style="font-weight:bold;vertical-align:top;">google_analytics_id</td><td style="vertical-align:top;">:</td><td><div>None</div></td></tr><tr><td style="font-weight:bold;vertical-align:top;">headers</td><td style="vertical-align:top;">:</td><td><div><table><tr><td style="font-weight:bold;vertical-align:top;">X-Powered-By</td><td style="vertical-align:top;">:</td><td><div>web2py</div></td></tr></table></div></td></tr><tr><td style="font-weight:bold;vertical-align:top;">logo</td><td style="vertical-align:top;">:</td><td><div><a class="brand" data-w2p_disable_with="default" href="http://www.web2py.com/"><b>web<span>2</span>py</b>&trade;&nbsp;</a></div></td></tr><tr><td style="font-weight:bold;vertical-align:top;">menu</td><td style="vertical-align:top;">:</td><td><div><table><tr><td><div><table><tr><td><div>Home</div></td></tr><tr><td><div>False</div></td></tr><tr><td><div>/Cifra/default/index</div></td></tr><tr><td><div><table></table></div></td></tr></table></div></td></tr><tr><td><div><table><tr><td><div><span class="highlighted">web2py</span></div></td></tr><tr><td><div>False</div></td></tr><tr><td><div>http://web2py.com</div></td></tr><tr><td><div><table><tr><td><div><table><tr><td><div>My Sites</div></td></tr><tr><td><div>False</div></td></tr><tr><td><div>/admin/default/site</div></td></tr></table></div></td></tr><tr><td><div><table><tr><td><div>This App</div></td></tr><tr><td><div>False</div></td></tr><tr><td><div>/admin/default/design/Cifra</div></td></tr><tr><td><div>[(&lt;lazyT &#x27;Controller&#x27;&gt;, False, &#x27;/admin/default/edit/Cifra/controllers/default.py&#x27;), (&lt;lazyT &#x27;View&#x27;&gt;, False, &#x27;/admin/default/edit/Cifra/views/default/index.html&#x27;), (&lt;lazyT &#x27;Layout&#x27;&gt;, False, &#x27;/admin/default/edit/Cifra/views/layout.html&#x27;), (&lt;lazyT &#x27;Stylesheet&#x27;&gt;, False, &#x27;/admin/default/edit/Cifra/static/css/web2py.css&#x27;), (&lt;lazyT &#x27;DB Model&#x27;&gt;, False, &#x27;/admin/default/edit/Cifra/models/db.py&#x27;), (&lt;lazyT &#x27;Menu Model&#x27;&gt;, False, &#x27;/admin/default/edit/Cifra/models/menu.py&#x27;), (&lt;lazyT &#x27;Database&#x27;&gt;, False, &#x27;/Cifra/appadmin/index&#x27;), (&lt;lazyT &#x27;Errors&#x27;&gt;, False, &#x27;/admin/default/errors/Cifra&#x27;), (&lt;lazyT &#x27;About&#x27;&gt;, False, &#x27;/admin/default/about/Cifra&#x27;)]</div></td></tr></table></div></td></tr><tr><td><div><table><tr><td><div>web2py.com</div></td></tr><tr><td><div>False</div></td></tr><tr><td><div>http://www.web2py.com</div></td></tr><tr><td><div>[(&lt;lazyT &#x27;Download&#x27;&gt;, False, &#x27;http://www.web2py.com/examples/default/download&#x27;), (&lt;lazyT &#x27;Support&#x27;&gt;, False, &#x27;http://www.web2py.com/examples/default/support&#x27;), (&lt;lazyT &#x27;Demo&#x27;&gt;, False, &#x27;http://web2py.com/demo_admin&#x27;), (&lt;lazyT &#x27;Quick Examples&#x27;&gt;, False, &#x27;http://web2py.com/examples/default/examples&#x27;), (&lt;lazyT &#x27;FAQ&#x27;&gt;, False, &#x27;http://web2py.com/AlterEgo&#x27;), (&lt;lazyT &#x27;Videos&#x27;&gt;, False, &#x27;http://www.web2py.com/examples/default/videos/&#x27;), (&lt;lazyT &#x27;Free Applications&#x27;&gt;, False, &#x27;http://web2py.com/appliances&#x27;), (&lt;lazyT &#x27;Plugins&#x27;&gt;, False, &#x27;http://web2py.com/plugins&#x27;), (&lt;lazyT &#x27;Layouts&#x27;&gt;, False, &#x27;http://web2py.com/layouts&#x27;), (&lt;lazyT &#x27;Recipes&#x27;&gt;, False, &#x27;http://web2pyslices.com/&#x27;), (&lt;lazyT &#x27;Semantic&#x27;&gt;, False, &#x27;http://web2py.com/semantic&#x27;)]</div></td></tr></table></div></td></tr><tr><td><div><table><tr><td><div>Documentation</div></td></tr><tr><td><div>False</div></td></tr><tr><td><div>http://www.web2py.com/book</div></td></tr><tr><td><div>[(&lt;lazyT &#x27;Preface&#x27;&gt;, False, &#x27;http://www.web2py.com/book/default/chapter/00&#x27;), (&lt;lazyT &#x27;Introduction&#x27;&gt;, False, &#x27;http://www.web2py.com/book/default/chapter/01&#x27;), (&lt;lazyT &#x27;Python&#x27;&gt;, False, &#x27;http://www.web2py.com/book/default/chapter/02&#x27;), (&lt;lazyT &#x27;Overview&#x27;&gt;, False, &#x27;http://www.web2py.com/book/default/chapter/03&#x27;), (&lt;lazyT &#x27;The Core&#x27;&gt;, False, &#x27;http://www.web2py.com/book/default/chapter/04&#x27;), (&lt;lazyT &#x27;The Views&#x27;&gt;, False, &#x27;http://www.web2py.com/book/default/chapter/05&#x27;), (&lt;lazyT &#x27;Database&#x27;&gt;, False, &#x27;http://www.web2py.com/book/default/chapter/06&#x27;), (&lt;lazyT &#x27;Forms and Validators&#x27;&gt;, False, &#x27;http://www.web2py.com/book/default/chapter/07&#x27;), (&lt;lazyT &#x27;Email and SMS&#x27;&gt;, False, &#x27;http://www.web2py.com/book/default/chapter/08&#x27;), (&lt;lazyT &#x27;Access Control&#x27;&gt;, False, &#x27;http://www.web2py.com/book/default/chapter/09&#x27;), (&lt;lazyT &#x27;Services&#x27;&gt;, False, &#x27;http://www.web2py.com/book/default/chapter/10&#x27;), (&lt;lazyT &#x27;Ajax Recipes&#x27;&gt;, False, &#x27;http://www.web2py.com/book/default/chapter/11&#x27;), (&lt;lazyT &#x27;Components and Plugins&#x27;&gt;, False, &#x27;http://www.web2py.com/book/default/chapter/12&#x27;), (&lt;lazyT &#x27;Deployment Recipes&#x27;&gt;, False, &#x27;http://www.web2py.com/book/default/chapter/13&#x27;), (&lt;lazyT &#x27;Other Recipes&#x27;&gt;, False, &#x27;http://www.web2py.com/book/default/chapter/14&#x27;), (&lt;lazyT &#x27;Buy this book&#x27;&gt;, False, &#x27;http://stores.lulu.com/web2py&#x27;)]</div></td></tr></table></div></td></tr><tr><td><div><table><tr><td><div>Community</div></td></tr><tr><td><div>False</div></td></tr><tr><td><div>None</div></td></tr><tr><td><div>[(&lt;lazyT &#x27;Groups&#x27;&gt;, False, &#x27;http://www.web2py.com/examples/default/usergroups&#x27;), (&lt;lazyT &#x27;Twitter&#x27;&gt;, False, &#x27;http://twitter.com/web2py&#x27;), (&lt;lazyT &#x27;Live Chat&#x27;&gt;, False, &#x27;http://webchat.freenode.net/?channels=web2py&#x27;)]</div></td></tr></table></div></td></tr><tr><td><div><table><tr><td><div>Plugins</div></td></tr><tr><td><div>False</div></td></tr><tr><td><div>None</div></td></tr><tr><td><div>[(&#x27;plugin_wiki&#x27;, False, &#x27;http://web2py.com/examples/default/download&#x27;), (&lt;lazyT &#x27;Other Plugins&#x27;&gt;, False, &#x27;http://web2py.com/plugins&#x27;), (&lt;lazyT &#x27;Layout Plugins&#x27;&gt;, False, &#x27;http://web2py.com/layouts&#x27;)]</div></td></tr></table></div></td></tr></table></div></td></tr></table></div></td></tr></table></div></td></tr><tr><td style="font-weight:bold;vertical-align:top;">meta</td><td style="vertical-align:top;">:</td><td><div><table><tr><td style="font-weight:bold;vertical-align:top;">author</td><td style="vertical-align:top;">:</td><td><div>Your Name &lt;you@example.com&gt;</div></td></tr><tr><td style="font-weight:bold;vertical-align:top;">description</td><td style="vertical-align:top;">:</td><td><div>a cool new app</div></td></tr><tr><td style="font-weight:bold;vertical-align:top;">generator</td><td style="vertical-align:top;">:</td><td><div>Web2py Web Framework</div></td></tr><tr><td style="font-weight:bold;vertical-align:top;">keywords</td><td style="vertical-align:top;">:</td><td><div>web2py, python, framework</div></td></tr></table></div></td></tr><tr><td style="font-weight:bold;vertical-align:top;">models_to_run</td><td style="vertical-align:top;">:</td><td><div><table><tr><td><div>^\\w+\\.py$</div></td></tr><tr><td><div>^default/\\w+\\.py$</div></td></tr><tr><td><div>^default/index/\\w+\\.py$</div></td></tr></table></div></td></tr><tr><td style="font-weight:bold;vertical-align:top;">postprocessing</td><td style="vertical-align:top;">:</td><td><div><table></table></div></td></tr><tr><td style="font-weight:bold;vertical-align:top;">session_client</td><td style="vertical-align:top;">:</td><td><div>127.0.0.1</div></td></tr><tr><td style="font-weight:bold;vertical-align:top;">session_cookie_compression_level</td><td style="vertical-align:top;">:</td><td><div>None</div></td></tr><tr><td style="font-weight:bold;vertical-align:top;">session_cookie_expires</td><td style="vertical-align:top;">:</td><td><div>None</div></td></tr><tr><td style="font-weight:bold;vertical-align:top;">session_cookie_key</td><td style="vertical-align:top;">:</td><td><div>None</div></td></tr><tr><td style="font-weight:bold;vertical-align:top;">session_data_name</td><td style="vertical-align:top;">:</td><td><div>session_data_cifra</div></td></tr><tr><td style="font-weight:bold;vertical-align:top;">session_filename</td><td style="vertical-align:top;">:</td><td><div>/Users/JoaoBtte/Documents/python/Hello/applications/Cifra/sessions/127.0.0.1-d107fe7e-5827-43f8-8fac-0f99228e14f9</div></td></tr><tr><td style="font-weight:bold;vertical-align:top;">session_hash</td><td style="vertical-align:top;">:</td><td><div>403e92a0c4ffcf2d0fc9d66258a59ae6</div></td></tr><tr><td style="font-weight:bold;vertical-align:top;">session_id</td><td style="vertical-align:top;">:</td><td><div>127.0.0.1-d107fe7e-5827-43f8-8fac-0f99228e14f9</div></td></tr><tr><td style="font-weight:bold;vertical-align:top;">session_id_name</td><td style="vertical-align:top;">:</td><td><div>session_id_cifra</div></td></tr><tr><td style="font-weight:bold;vertical-align:top;">session_locked</td><td style="vertical-align:top;">:</td><td><div>False</div></td></tr><tr><td style="font-weight:bold;vertical-align:top;">session_masterapp</td><td style="vertical-align:top;">:</td><td><div>Cifra</div></td></tr><tr><td style="font-weight:bold;vertical-align:top;">session_new</td><td style="vertical-align:top;">:</td><td><div>False</div></td></tr><tr><td style="font-weight:bold;vertical-align:top;">session_storage_type</td><td style="vertical-align:top;">:</td><td><div>file</div></td></tr><tr><td style="font-weight:bold;vertical-align:top;">status</td><td style="vertical-align:top;">:</td><td><div>200</div></td></tr><tr><td style="font-weight:bold;vertical-align:top;">subtitle</td><td style="vertical-align:top;">:</td><td><div></div></td></tr><tr><td style="font-weight:bold;vertical-align:top;">title</td><td style="vertical-align:top;">:</td><td><div>Cifra</div></td></tr><tr><td style="font-weight:bold;vertical-align:top;">view</td><td style="vertical-align:top;">:</td><td><div>default/index.html</div></td></tr></table></div>'
tRp293
sS'locals'
p294
(dp295
S'self'
p296
S'<gluon.contrib.qdb.Qdb instance>'
p297
sS'filename'
p298
S"'/Library/Python/2.7/site-packages/bs4/element.py'"
p299
sssS'traceback'
p300
S'Traceback (most recent call last):\n  File "/Users/JoaoBtte/Documents/python/Hello/gluon/main.py", line 486, in wsgibase\n    session._try_store_in_cookie_or_file(request, response)\n  File "/Users/JoaoBtte/Documents/python/Hello/gluon/globals.py", line 1047, in _try_store_in_cookie_or_file\n    return self._try_store_in_file(request, response)\n  File "/Users/JoaoBtte/Documents/python/Hello/gluon/globals.py", line 1053, in _try_store_in_file\n    if not response.session_id or self._forget or self._unchanged(response):\n  File "/Users/JoaoBtte/Documents/python/Hello/gluon/globals.py", line 1001, in _unchanged\n    session_pickled = cPickle.dumps(self)\n  File "/System/Library/Frameworks/Python.framework/Versions/2.7/lib/python2.7/copy_reg.py", line 74, in _reduce_ex\n    getstate = self.__getstate__\n  File "/Library/Python/2.7/site-packages/bs4/element.py", line 937, in __getattr__\n    def __getattr__(self, tag):\n  File "/Users/JoaoBtte/Documents/python/Hello/gluon/contrib/qdb.py", line 91, in trace_dispatch\n    return self.dispatch_call(frame, arg)\n  File "/System/Library/Frameworks/Python.framework/Versions/2.7/lib/python2.7/bdb.py", line 76, in dispatch_call\n    if not (self.stop_here(frame) or self.break_anywhere(frame)):\n  File "/System/Library/Frameworks/Python.framework/Versions/2.7/lib/python2.7/bdb.py", line 147, in break_anywhere\n    return self.canonic(frame.f_code.co_filename) in self.breaks\n  File "/System/Library/Frameworks/Python.framework/Versions/2.7/lib/python2.7/bdb.py", line 29, in canonic\n    if filename == "<" + filename[1:-1] + ">":\nRuntimeError: maximum recursion depth exceeded in cmp\n'
p301
s.