(dp1
S'output'
p2
S"<class 'psycopg2.InternalError'> current transaction is aborted, commands ignored until end of transaction block\n"
p3
sS'layer'
p4
S'/Users/JoaoBtte/Documents/python/Hello/applications/Cifra/models/db.py'
p5
sS'code'
p6
S"#import os\n#if not request.env.web2py_runtime_gae:\n#    try: db = DAL(os.environ.get('DATABASE_URL'))\n#    except: db = DAL('postgres://username:password@localhost/test')\n#from gluon.tools import Auth\n#auth = Auth(db)\n#auth.define_tables(username=True)\n##################################################################\n\n# -*- coding: utf-8 -*-\n\n\n## if SSL/HTTPS is properly configured and you want all HTTP requests to\n## be redirected to HTTPS, uncomment the line below:\n# request.requires_https()\n\nif not request.env.web2py_runtime_gae:\n    ## if NOT running on Google App Engine use SQLite or other DB\n    from gluon.contrib.heroku import get_db\n    db = DAL('postgres://postgres:felipe10@localhost:5432/test')\nelse:\n    ## connect to Google BigTable (optional 'google:datastore://namespace')\n    db = DAL('google:datastore')\n    ## store sessions and tickets there\n    session.connect(request, response, db=db)\n    ## or store session in Memcache, Redis, etc.\n    ## from gluon.contrib.memdb import MEMDB\n    ## from google.appengine.api.memcache import Client\n    ## session.connect(request, response, db = MEMDB(Client()))\n\n## by default give a view/generic.extension to all actions from localhost\n## none otherwise. a pattern can be 'controller/function.extension'\nresponse.generic_patterns = ['*'] if request.is_local else []\n## (optional) optimize handling of static files\n# response.optimize_css = 'concat,minify,inline'\n# response.optimize_js = 'concat,minify,inline'\n\n#########################################################################\n## Here is sample code if you need for\n## - email capabilities\n## - authentication (registration, login, logout, ... )\n## - authorization (role based authorization)\n## - services (xml, csv, json, xmlrpc, jsonrpc, amf, rss)\n## - old style crud actions\n## (more options discussed in gluon/tools.py)\n#########################################################################\n\nfrom gluon.tools import Auth, Crud, Service, PluginManager, prettydate\nauth = Auth(db)\ncrud, service, plugins = Crud(db), Service(), PluginManager()\n\n## create all tables needed by auth if not custom tables\nauth.define_tables(username=False, signature=False)\n\n## configure email\nmail = auth.settings.mailer\nmail.settings.server = 'logging' or 'smtp.gmail.com:587'\nmail.settings.sender = 'you@gmail.com'\nmail.settings.login = 'username:password'\n\n## configure auth policy\nauth.settings.registration_requires_verification = False\nauth.settings.registration_requires_approval = False\nauth.settings.reset_password_requires_verification = True\n\n## if you need to use OpenID, Facebook, MySpace, Twitter, Linkedin, etc.\n## register with janrain.com, write your domain:api_key in private/janrain.key\nfrom gluon.contrib.login_methods.rpx_account import use_janrain\nuse_janrain(auth, filename='private/janrain.key')\n\n#########################################################################\n## Define your tables below (or better in another model file) for example\n##\n## >>> db.define_table('mytable',Field('myfield','string'))\n##\n## Fields can be 'string','text','password','integer','double','boolean'\n##       'date','time','datetime','blob','upload', 'reference TABLENAME'\n## There is an implicit 'id integer autoincrement' field\n## Consult manual for more options, validators, etc.\n##\n## More API examples for controllers:\n##\n## >>> db.mytable.insert(myfield='value')\n## >>> rows=db(db.mytable.myfield=='value').select(db.mytable.ALL)\n## >>> for row in rows: print row.id, row.myfield\n#########################################################################\n\n## after defining tables, uncomment below to enable auditing\n# auth.enable_record_versioning(db)\n"
p7
sS'snapshot'
p8
(dp9
S'exception'
p10
(dp11
S'__module__'
p12
S"'psycopg2'"
p13
sS'__getslice__'
p14
S"<method-wrapper '__getslice__' of InternalError object>"
p15
sS'__str__'
p16
S"<method-wrapper '__str__' of InternalError object>"
p17
sS'__reduce__'
p18
S'<built-in method __reduce__ of InternalError object>'
p19
sS'__dict__'
p20
S'{}'
p21
sS'__sizeof__'
p22
S'<built-in method __sizeof__ of InternalError object>'
p23
sS'__weakref__'
p24
S'None'
p25
sS'__init__'
p26
S"<method-wrapper '__init__' of InternalError object>"
p27
sS'__setattr__'
p28
S"<method-wrapper '__setattr__' of InternalError object>"
p29
sS'__reduce_ex__'
p30
S'<built-in method __reduce_ex__ of InternalError object>'
p31
sS'__new__'
p32
S'<built-in method __new__ of type object>'
p33
sS'diag'
p34
S'<psycopg2._psycopg.Diagnostics object>'
p35
sS'__format__'
p36
S'<built-in method __format__ of InternalError object>'
p37
sS'__class__'
p38
S"<class 'psycopg2.InternalError'>"
p39
sS'pgerror'
p40
S"'ERROR:  current transaction is aborted, commands ignored until end of transaction block\\n'"
p41
sS'__doc__'
p42
S"'The database encountered an internal error.'"
p43
sS'__getitem__'
p44
S"<method-wrapper '__getitem__' of InternalError object>"
p45
sS'__setstate__'
p46
S'<built-in method __setstate__ of InternalError object>'
p47
sS'__getattribute__'
p48
S"<method-wrapper '__getattribute__' of InternalError object>"
p49
sS'args'
p50
S"('current transaction is aborted, commands ignored until end of transaction block\\n',)"
p51
sS'__subclasshook__'
p52
S'<built-in method __subclasshook__ of type object>'
p53
sS'pgcode'
p54
S"'25P02'"
p55
sS'__unicode__'
p56
S'<built-in method __unicode__ of InternalError object>'
p57
sS'cursor'
p58
S'<cursor object at 0x10cf25ed8; closed: 0>'
p59
sS'__delattr__'
p60
S"<method-wrapper '__delattr__' of InternalError object>"
p61
sS'__repr__'
p62
S"<method-wrapper '__repr__' of InternalError object>"
p63
sS'__hash__'
p64
S"<method-wrapper '__hash__' of InternalError object>"
p65
ssS'evalue'
p66
S'current transaction is aborted, commands ignored until end of transaction block\n'
p67
sS'request'
p68
cgluon.html
XML_unpickle
p69
(S's\xb3b\x00\x00<div><table><tr><td style="font-weight:bold;vertical-align:top;">ajax</td><td style="vertical-align:top;">:</td><td><div>False</div></td></tr><tr><td style="font-weight:bold;vertical-align:top;">application</td><td style="vertical-align:top;">:</td><td><div>Cifra</div></td></tr><tr><td style="font-weight:bold;vertical-align:top;">args</td><td style="vertical-align:top;">:</td><td><div><table></table></div></td></tr><tr><td style="font-weight:bold;vertical-align:top;">cid</td><td style="vertical-align:top;">:</td><td><div>None</div></td></tr><tr><td style="font-weight:bold;vertical-align:top;">client</td><td style="vertical-align:top;">:</td><td><div>127.0.0.1</div></td></tr><tr><td style="font-weight:bold;vertical-align:top;">controller</td><td style="vertical-align:top;">:</td><td><div>default</div></td></tr><tr><td style="font-weight:bold;vertical-align:top;">cookies</td><td style="vertical-align:top;">:</td><td><div><table><tr><td style="font-weight:bold;vertical-align:top;">session_id_admin</td><td style="vertical-align:top;">:</td><td><div>127.0.0.1-0389d31e-9165-437a-83f0-f263d100ddf1<table><tr><td style="font-weight:bold;vertical-align:top;">comment</td><td style="vertical-align:top;">:</td><td><div></div></td></tr><tr><td style="font-weight:bold;vertical-align:top;">domain</td><td style="vertical-align:top;">:</td><td><div></div></td></tr><tr><td style="font-weight:bold;vertical-align:top;">expires</td><td style="vertical-align:top;">:</td><td><div></div></td></tr><tr><td style="font-weight:bold;vertical-align:top;">httponly</td><td style="vertical-align:top;">:</td><td><div></div></td></tr><tr><td style="font-weight:bold;vertical-align:top;">max-age</td><td style="vertical-align:top;">:</td><td><div></div></td></tr><tr><td style="font-weight:bold;vertical-align:top;">path</td><td style="vertical-align:top;">:</td><td><div></div></td></tr><tr><td style="font-weight:bold;vertical-align:top;">secure</td><td style="vertical-align:top;">:</td><td><div></div></td></tr><tr><td style="font-weight:bold;vertical-align:top;">version</td><td style="vertical-align:top;">:</td><td><div></div></td></tr></table></div></td></tr><tr><td style="font-weight:bold;vertical-align:top;">session_id_cifra</td><td style="vertical-align:top;">:</td><td><div>127.0.0.1-ef120df4-6768-43e3-9896-3a734e50e758<table><tr><td style="font-weight:bold;vertical-align:top;">comment</td><td style="vertical-align:top;">:</td><td><div></div></td></tr><tr><td style="font-weight:bold;vertical-align:top;">domain</td><td style="vertical-align:top;">:</td><td><div></div></td></tr><tr><td style="font-weight:bold;vertical-align:top;">expires</td><td style="vertical-align:top;">:</td><td><div></div></td></tr><tr><td style="font-weight:bold;vertical-align:top;">httponly</td><td style="vertical-align:top;">:</td><td><div></div></td></tr><tr><td style="font-weight:bold;vertical-align:top;">max-age</td><td style="vertical-align:top;">:</td><td><div></div></td></tr><tr><td style="font-weight:bold;vertical-align:top;">path</td><td style="vertical-align:top;">:</td><td><div></div></td></tr><tr><td style="font-weight:bold;vertical-align:top;">secure</td><td style="vertical-align:top;">:</td><td><div></div></td></tr><tr><td style="font-weight:bold;vertical-align:top;">version</td><td style="vertical-align:top;">:</td><td><div></div></td></tr></table></div></td></tr><tr><td style="font-weight:bold;vertical-align:top;">session_id_images</td><td style="vertical-align:top;">:</td><td><div>127.0.0.1-12e03b29-444f-41f6-92b7-b08e86427552<table><tr><td style="font-weight:bold;vertical-align:top;">comment</td><td style="vertical-align:top;">:</td><td><div></div></td></tr><tr><td style="font-weight:bold;vertical-align:top;">domain</td><td style="vertical-align:top;">:</td><td><div></div></td></tr><tr><td style="font-weight:bold;vertical-align:top;">expires</td><td style="vertical-align:top;">:</td><td><div></div></td></tr><tr><td style="font-weight:bold;vertical-align:top;">httponly</td><td style="vertical-align:top;">:</td><td><div></div></td></tr><tr><td style="font-weight:bold;vertical-align:top;">max-age</td><td style="vertical-align:top;">:</td><td><div></div></td></tr><tr><td style="font-weight:bold;vertical-align:top;">path</td><td style="vertical-align:top;">:</td><td><div></div></td></tr><tr><td style="font-weight:bold;vertical-align:top;">secure</td><td style="vertical-align:top;">:</td><td><div></div></td></tr><tr><td style="font-weight:bold;vertical-align:top;">version</td><td style="vertical-align:top;">:</td><td><div></div></td></tr></table></div></td></tr><tr><td style="font-weight:bold;vertical-align:top;">session_id_welcome</td><td style="vertical-align:top;">:</td><td><div>127.0.0.1-2c072f0d-cc5b-49e6-96d9-1e624a7a2a3f<table><tr><td style="font-weight:bold;vertical-align:top;">comment</td><td style="vertical-align:top;">:</td><td><div></div></td></tr><tr><td style="font-weight:bold;vertical-align:top;">domain</td><td style="vertical-align:top;">:</td><td><div></div></td></tr><tr><td style="font-weight:bold;vertical-align:top;">expires</td><td style="vertical-align:top;">:</td><td><div></div></td></tr><tr><td style="font-weight:bold;vertical-align:top;">httponly</td><td style="vertical-align:top;">:</td><td><div></div></td></tr><tr><td style="font-weight:bold;vertical-align:top;">max-age</td><td style="vertical-align:top;">:</td><td><div></div></td></tr><tr><td style="font-weight:bold;vertical-align:top;">path</td><td style="vertical-align:top;">:</td><td><div></div></td></tr><tr><td style="font-weight:bold;vertical-align:top;">secure</td><td style="vertical-align:top;">:</td><td><div></div></td></tr><tr><td style="font-weight:bold;vertical-align:top;">version</td><td style="vertical-align:top;">:</td><td><div></div></td></tr></table></div></td></tr></table></div></td></tr><tr><td style="font-weight:bold;vertical-align:top;">env</td><td style="vertical-align:top;">:</td><td><div><table><tr><td style="font-weight:bold;vertical-align:top;">HTTP_ACCEPT</td><td style="vertical-align:top;">:</td><td><div>text/html,application/xhtml+xml,application/xml;q=0.9,*/*;q=0.8</div></td></tr><tr><td style="font-weight:bold;vertical-align:top;">HTTP_ACCEPT_ENCODING</td><td style="vertical-align:top;">:</td><td><div>gzip,deflate,sdch</div></td></tr><tr><td style="font-weight:bold;vertical-align:top;">HTTP_ACCEPT_LANGUAGE</td><td style="vertical-align:top;">:</td><td><div>pt-BR,pt;q=0.8,en-US;q=0.6,en;q=0.4</div></td></tr><tr><td style="font-weight:bold;vertical-align:top;">HTTP_CACHE_CONTROL</td><td style="vertical-align:top;">:</td><td><div>max-age=0</div></td></tr><tr><td style="font-weight:bold;vertical-align:top;">HTTP_CONNECTION</td><td style="vertical-align:top;">:</td><td><div>keep-alive</div></td></tr><tr><td style="font-weight:bold;vertical-align:top;">HTTP_COOKIE</td><td style="vertical-align:top;">:</td><td><div>session_id_images=127.0.0.1-12e03b29-444f-41f6-92b7-b08e86427552; session_id_cifra=127.0.0.1-ef120df4-6768-43e3-9896-3a734e50e758; session_id_welcome=127.0.0.1-2c072f0d-cc5b-49e6-96d9-1e624a7a2a3f; session_id_admin=127.0.0.1-0389d31e-9165-437a-83f0-f263d100ddf1</div></td></tr><tr><td style="font-weight:bold;vertical-align:top;">HTTP_HOST</td><td style="vertical-align:top;">:</td><td><div>127.0.0.1:8000</div></td></tr><tr><td style="font-weight:bold;vertical-align:top;">HTTP_REFERER</td><td style="vertical-align:top;">:</td><td><div>http://127.0.0.1:8000/admin/default/design/Cifra</div></td></tr><tr><td style="font-weight:bold;vertical-align:top;">HTTP_USER_AGENT</td><td style="vertical-align:top;">:</td><td><div>Mozilla/5.0 (Macintosh; Intel Mac OS X 10_8_5) AppleWebKit/537.36 (KHTML, like Gecko) Chrome/29.0.1547.76 Safari/537.36</div></td></tr><tr><td style="font-weight:bold;vertical-align:top;">PATH_INFO</td><td style="vertical-align:top;">:</td><td><div>/Cifra/default/index</div></td></tr><tr><td style="font-weight:bold;vertical-align:top;">QUERY_STRING</td><td style="vertical-align:top;">:</td><td><div></div></td></tr><tr><td style="font-weight:bold;vertical-align:top;">REMOTE_ADDR</td><td style="vertical-align:top;">:</td><td><div>127.0.0.1</div></td></tr><tr><td style="font-weight:bold;vertical-align:top;">REMOTE_PORT</td><td style="vertical-align:top;">:</td><td><div>52262</div></td></tr><tr><td style="font-weight:bold;vertical-align:top;">REQUEST_METHOD</td><td style="vertical-align:top;">:</td><td><div>GET</div></td></tr><tr><td style="font-weight:bold;vertical-align:top;">SCRIPT_NAME</td><td style="vertical-align:top;">:</td><td><div></div></td></tr><tr><td style="font-weight:bold;vertical-align:top;">SERVER_NAME</td><td style="vertical-align:top;">:</td><td><div>MacBook-Pro-de-Joao.local</div></td></tr><tr><td style="font-weight:bold;vertical-align:top;">SERVER_PORT</td><td style="vertical-align:top;">:</td><td><div>8000</div></td></tr><tr><td style="font-weight:bold;vertical-align:top;">SERVER_PROTOCOL</td><td style="vertical-align:top;">:</td><td><div>HTTP/1.1</div></td></tr><tr><td style="font-weight:bold;vertical-align:top;">SERVER_SOFTWARE</td><td style="vertical-align:top;">:</td><td><div>Rocket 1.2.6</div></td></tr><tr><td style="font-weight:bold;vertical-align:top;">app_folders</td><td style="vertical-align:top;">:</td><td><div>set([&#x27;/Users/JoaoBtte/Documents/python/Hello/applications/admin/&#x27;, &#x27;/Users/JoaoBtte/Documents/python/Hello/applications/welcome/&#x27;, &#x27;/Users/JoaoBtte/Documents/python/Hello/applications/Cifra/&#x27;])</div></td></tr><tr><td style="font-weight:bold;vertical-align:top;">applications_parent</td><td style="vertical-align:top;">:</td><td><div>/Users/JoaoBtte/Documents/python/Hello</div></td></tr><tr><td style="font-weight:bold;vertical-align:top;">cmd_args</td><td style="vertical-align:top;">:</td><td><div><table></table></div></td></tr><tr><td style="font-weight:bold;vertical-align:top;">cmd_options</td><td style="vertical-align:top;">:</td><td><div>&lt;Values at 0x10d056830: {&#x27;verbose&#x27;: False, &#x27;ip&#x27;: &#x27;127.0.0.1&#x27;, &#x27;debuglevel&#x27;: 30, &#x27;with_scheduler&#x27;: False, &#x27;ips&#x27;: [&#x27;fe80::22c9:d0ff:fed9:645f%en1&#x27;, &#x27;192.168.0.22&#x27;], &#x27;shutdown_timeout&#x27;: 5, &#x27;taskbar&#x27;: False, &#x27;with_coverage&#x27;: False, &#x27;port&#x27;: 8000, &#x27;maxthreads&#x27;: None, &#x27;softcron&#x27;: False, &#x27;server_name&#x27;: &#x27;MacBook-Pro-de-Joao.local&#x27;, &#x27;bpython&#x27;: False, &#x27;nogui&#x27;: False, &#x27;pid_filename&#x27;: &#x27;httpserver.pid&#x27;, &#x27;extcron&#x27;: False, &#x27;runcron&#x27;: False, &#x27;run_system_tests&#x27;: False, &#x27;test&#x27;: None, &#x27;folder&#x27;: &#x27;/Users/JoaoBtte/Documents/python/Hello&#x27;, &#x27;config&#x27;: &#x27;&#x27;, &#x27;minthreads&#x27;: None, &#x27;winservice&#x27;: &#x27;&#x27;, &#x27;shell&#x27;: None, &#x27;run&#x27;: &#x27;&#x27;, &#x27;log_filename&#x27;: &#x27;httpserver.log&#x27;, &#x27;profiler_dir&#x27;: None, &#x27;args&#x27;: [&#x27;&#x27;], &#x27;socket_timeout&#x27;: 5, &#x27;ssl_ca_certificate&#x27;: None, &#x27;scheduler&#x27;: None, &#x27;interfaces&#x27;: None, &#x27;ssl_private_key&#x27;: &#x27;&#x27;, &#x27;scheduler_groups&#x27;: None, &#x27;password&#x27;: &#x27;&lt;ask&gt;&#x27;, &#x27;request_queue_size&#x27;: 5, &#x27;ssl_certificate&#x27;: &#x27;&#x27;, &#x27;cronjob&#x27;: False, &#x27;numthreads&#x27;: None, &#x27;quiet&#x27;: False, &#x27;import_models&#x27;: False, &#x27;timeout&#x27;: 10, &#x27;plain&#x27;: False, &#x27;nobanner&#x27;: False}&gt;</div></td></tr><tr><td style="font-weight:bold;vertical-align:top;">db_sessions</td><td style="vertical-align:top;">:</td><td><div>set([])</div></td></tr><tr><td style="font-weight:bold;vertical-align:top;">debugging</td><td style="vertical-align:top;">:</td><td><div>False</div></td></tr><tr><td style="font-weight:bold;vertical-align:top;">gluon_parent</td><td style="vertical-align:top;">:</td><td><div>/Users/JoaoBtte/Documents/python/Hello</div></td></tr><tr><td style="font-weight:bold;vertical-align:top;">http_accept</td><td style="vertical-align:top;">:</td><td><div>text/html,application/xhtml+xml,application/xml;q=0.9,*/*;q=0.8</div></td></tr><tr><td style="font-weight:bold;vertical-align:top;">http_accept_encoding</td><td style="vertical-align:top;">:</td><td><div>gzip,deflate,sdch</div></td></tr><tr><td style="font-weight:bold;vertical-align:top;">http_accept_language</td><td style="vertical-align:top;">:</td><td><div>pt-BR,pt;q=0.8,en-US;q=0.6,en;q=0.4</div></td></tr><tr><td style="font-weight:bold;vertical-align:top;">http_cache_control</td><td style="vertical-align:top;">:</td><td><div>max-age=0</div></td></tr><tr><td style="font-weight:bold;vertical-align:top;">http_connection</td><td style="vertical-align:top;">:</td><td><div>keep-alive</div></td></tr><tr><td style="font-weight:bold;vertical-align:top;">http_cookie</td><td style="vertical-align:top;">:</td><td><div>session_id_images=127.0.0.1-12e03b29-444f-41f6-92b7-b08e86427552; session_id_cifra=127.0.0.1-ef120df4-6768-43e3-9896-3a734e50e758; session_id_welcome=127.0.0.1-2c072f0d-cc5b-49e6-96d9-1e624a7a2a3f; session_id_admin=127.0.0.1-0389d31e-9165-437a-83f0-f263d100ddf1</div></td></tr><tr><td style="font-weight:bold;vertical-align:top;">http_host</td><td style="vertical-align:top;">:</td><td><div>127.0.0.1:8000</div></td></tr><tr><td style="font-weight:bold;vertical-align:top;">http_referer</td><td style="vertical-align:top;">:</td><td><div>http://127.0.0.1:8000/admin/default/design/Cifra</div></td></tr><tr><td style="font-weight:bold;vertical-align:top;">http_user_agent</td><td style="vertical-align:top;">:</td><td><div>Mozilla/5.0 (Macintosh; Intel Mac OS X 10_8_5) AppleWebKit/537.36 (KHTML, like Gecko) Chrome/29.0.1547.76 Safari/537.36</div></td></tr><tr><td style="font-weight:bold;vertical-align:top;">is_jython</td><td style="vertical-align:top;">:</td><td><div>False</div></td></tr><tr><td style="font-weight:bold;vertical-align:top;">is_pypy</td><td style="vertical-align:top;">:</td><td><div>False</div></td></tr><tr><td style="font-weight:bold;vertical-align:top;">is_source</td><td style="vertical-align:top;">:</td><td><div>True</div></td></tr><tr><td style="font-weight:bold;vertical-align:top;">local_hosts</td><td style="vertical-align:top;">:</td><td><div><table><tr><td><div>fe80::22c9:d0ff:fed9:645f%en1</div></td></tr><tr><td><div>::ffff:127.0.0.1</div></td></tr><tr><td><div>::1</div></td></tr><tr><td><div>192.168.0.22</div></td></tr><tr><td><div>MacBook-Pro-de-Joao.local</div></td></tr><tr><td><div>127.0.0.1</div></td></tr></table></div></td></tr><tr><td style="font-weight:bold;vertical-align:top;">path_info</td><td style="vertical-align:top;">:</td><td><div>/Cifra/default/index</div></td></tr><tr><td style="font-weight:bold;vertical-align:top;">query_string</td><td style="vertical-align:top;">:</td><td><div></div></td></tr><tr><td style="font-weight:bold;vertical-align:top;">remote_addr</td><td style="vertical-align:top;">:</td><td><div>127.0.0.1</div></td></tr><tr><td style="font-weight:bold;vertical-align:top;">remote_port</td><td style="vertical-align:top;">:</td><td><div>52262</div></td></tr><tr><td style="font-weight:bold;vertical-align:top;">request_method</td><td style="vertical-align:top;">:</td><td><div>GET</div></td></tr><tr><td style="font-weight:bold;vertical-align:top;">request_uri</td><td style="vertical-align:top;">:</td><td><div>/Cifra/default/index</div></td></tr><tr><td style="font-weight:bold;vertical-align:top;">script_name</td><td style="vertical-align:top;">:</td><td><div></div></td></tr><tr><td style="font-weight:bold;vertical-align:top;">server_name</td><td style="vertical-align:top;">:</td><td><div>MacBook-Pro-de-Joao.local</div></td></tr><tr><td style="font-weight:bold;vertical-align:top;">server_port</td><td style="vertical-align:top;">:</td><td><div>8000</div></td></tr><tr><td style="font-weight:bold;vertical-align:top;">server_protocol</td><td style="vertical-align:top;">:</td><td><div>HTTP/1.1</div></td></tr><tr><td style="font-weight:bold;vertical-align:top;">server_software</td><td style="vertical-align:top;">:</td><td><div>Rocket 1.2.6</div></td></tr><tr><td style="font-weight:bold;vertical-align:top;">web2py_path</td><td style="vertical-align:top;">:</td><td><div>/Users/JoaoBtte/Documents/python/Hello</div></td></tr><tr><td style="font-weight:bold;vertical-align:top;">web2py_version</td><td style="vertical-align:top;">:</td><td><div>2.6.2-stable+timestamp.2013.09.13.22.53.04</div></td></tr><tr><td style="font-weight:bold;vertical-align:top;">wsgi.errors</td><td style="vertical-align:top;">:</td><td><div>&lt;open file &#x27;&lt;stderr&gt;&#x27;, mode &#x27;w&#x27; at 0x10c0e5270&gt;</div></td></tr><tr><td style="font-weight:bold;vertical-align:top;">wsgi.file_wrapper</td><td style="vertical-align:top;">:</td><td><div>&lt;class wsgiref.util.FileWrapper at 0x10d076328&gt;</div></td></tr><tr><td style="font-weight:bold;vertical-align:top;">wsgi.input</td><td style="vertical-align:top;">:</td><td><div>&lt;socket._fileobject object at 0x11194e7d0&gt;</div></td></tr><tr><td style="font-weight:bold;vertical-align:top;">wsgi.multiprocess</td><td style="vertical-align:top;">:</td><td><div>False</div></td></tr><tr><td style="font-weight:bold;vertical-align:top;">wsgi.multithread</td><td style="vertical-align:top;">:</td><td><div>True</div></td></tr><tr><td style="font-weight:bold;vertical-align:top;">wsgi.run_once</td><td style="vertical-align:top;">:</td><td><div>False</div></td></tr><tr><td style="font-weight:bold;vertical-align:top;">wsgi.url_scheme</td><td style="vertical-align:top;">:</td><td><div>http</div></td></tr><tr><td style="font-weight:bold;vertical-align:top;">wsgi.version</td><td style="vertical-align:top;">:</td><td><div><table><tr><td><div>1</div></td></tr><tr><td><div>0</div></td></tr></table></div></td></tr><tr><td style="font-weight:bold;vertical-align:top;">wsgi_errors</td><td style="vertical-align:top;">:</td><td><div>&lt;open file &#x27;&lt;stderr&gt;&#x27;, mode &#x27;w&#x27; at 0x10c0e5270&gt;</div></td></tr><tr><td style="font-weight:bold;vertical-align:top;">wsgi_file_wrapper</td><td style="vertical-align:top;">:</td><td><div>&lt;class wsgiref.util.FileWrapper at 0x10d076328&gt;</div></td></tr><tr><td style="font-weight:bold;vertical-align:top;">wsgi_input</td><td style="vertical-align:top;">:</td><td><div>&lt;socket._fileobject object at 0x11194e7d0&gt;</div></td></tr><tr><td style="font-weight:bold;vertical-align:top;">wsgi_multiprocess</td><td style="vertical-align:top;">:</td><td><div>False</div></td></tr><tr><td style="font-weight:bold;vertical-align:top;">wsgi_multithread</td><td style="vertical-align:top;">:</td><td><div>True</div></td></tr><tr><td style="font-weight:bold;vertical-align:top;">wsgi_run_once</td><td style="vertical-align:top;">:</td><td><div>False</div></td></tr><tr><td style="font-weight:bold;vertical-align:top;">wsgi_url_scheme</td><td style="vertical-align:top;">:</td><td><div>http</div></td></tr><tr><td style="font-weight:bold;vertical-align:top;">wsgi_version</td><td style="vertical-align:top;">:</td><td><div><table><tr><td><div>1</div></td></tr><tr><td><div>0</div></td></tr></table></div></td></tr></table></div></td></tr><tr><td style="font-weight:bold;vertical-align:top;">extension</td><td style="vertical-align:top;">:</td><td><div>html</div></td></tr><tr><td style="font-weight:bold;vertical-align:top;">folder</td><td style="vertical-align:top;">:</td><td><div>/Users/JoaoBtte/Documents/python/Hello/applications/Cifra/</div></td></tr><tr><td style="font-weight:bold;vertical-align:top;">function</td><td style="vertical-align:top;">:</td><td><div>index</div></td></tr><tr><td style="font-weight:bold;vertical-align:top;">global_settings</td><td style="vertical-align:top;">:</td><td><div><table><tr><td style="font-weight:bold;vertical-align:top;">app_folders</td><td style="vertical-align:top;">:</td><td><div>set([&#x27;/Users/JoaoBtte/Documents/python/Hello/applications/admin/&#x27;, &#x27;/Users/JoaoBtte/Documents/python/Hello/applications/welcome/&#x27;, &#x27;/Users/JoaoBtte/Documents/python/Hello/applications/Cifra/&#x27;])</div></td></tr><tr><td style="font-weight:bold;vertical-align:top;">applications_parent</td><td style="vertical-align:top;">:</td><td><div>/Users/JoaoBtte/Documents/python/Hello</div></td></tr><tr><td style="font-weight:bold;vertical-align:top;">cmd_args</td><td style="vertical-align:top;">:</td><td><div><table></table></div></td></tr><tr><td style="font-weight:bold;vertical-align:top;">cmd_options</td><td style="vertical-align:top;">:</td><td><div>&lt;Values at 0x10d056830: {&#x27;verbose&#x27;: False, &#x27;ip&#x27;: &#x27;127.0.0.1&#x27;, &#x27;debuglevel&#x27;: 30, &#x27;with_scheduler&#x27;: False, &#x27;ips&#x27;: [&#x27;fe80::22c9:d0ff:fed9:645f%en1&#x27;, &#x27;192.168.0.22&#x27;], &#x27;shutdown_timeout&#x27;: 5, &#x27;taskbar&#x27;: False, &#x27;with_coverage&#x27;: False, &#x27;port&#x27;: 8000, &#x27;maxthreads&#x27;: None, &#x27;softcron&#x27;: False, &#x27;server_name&#x27;: &#x27;MacBook-Pro-de-Joao.local&#x27;, &#x27;bpython&#x27;: False, &#x27;nogui&#x27;: False, &#x27;pid_filename&#x27;: &#x27;httpserver.pid&#x27;, &#x27;extcron&#x27;: False, &#x27;runcron&#x27;: False, &#x27;run_system_tests&#x27;: False, &#x27;test&#x27;: None, &#x27;folder&#x27;: &#x27;/Users/JoaoBtte/Documents/python/Hello&#x27;, &#x27;config&#x27;: &#x27;&#x27;, &#x27;minthreads&#x27;: None, &#x27;winservice&#x27;: &#x27;&#x27;, &#x27;shell&#x27;: None, &#x27;run&#x27;: &#x27;&#x27;, &#x27;log_filename&#x27;: &#x27;httpserver.log&#x27;, &#x27;profiler_dir&#x27;: None, &#x27;args&#x27;: [&#x27;&#x27;], &#x27;socket_timeout&#x27;: 5, &#x27;ssl_ca_certificate&#x27;: None, &#x27;scheduler&#x27;: None, &#x27;interfaces&#x27;: None, &#x27;ssl_private_key&#x27;: &#x27;&#x27;, &#x27;scheduler_groups&#x27;: None, &#x27;password&#x27;: &#x27;&lt;ask&gt;&#x27;, &#x27;request_queue_size&#x27;: 5, &#x27;ssl_certificate&#x27;: &#x27;&#x27;, &#x27;cronjob&#x27;: False, &#x27;numthreads&#x27;: None, &#x27;quiet&#x27;: False, &#x27;import_models&#x27;: False, &#x27;timeout&#x27;: 10, &#x27;plain&#x27;: False, &#x27;nobanner&#x27;: False}&gt;</div></td></tr><tr><td style="font-weight:bold;vertical-align:top;">db_sessions</td><td style="vertical-align:top;">:</td><td><div>set([])</div></td></tr><tr><td style="font-weight:bold;vertical-align:top;">debugging</td><td style="vertical-align:top;">:</td><td><div>False</div></td></tr><tr><td style="font-weight:bold;vertical-align:top;">gluon_parent</td><td style="vertical-align:top;">:</td><td><div>/Users/JoaoBtte/Documents/python/Hello</div></td></tr><tr><td style="font-weight:bold;vertical-align:top;">is_jython</td><td style="vertical-align:top;">:</td><td><div>False</div></td></tr><tr><td style="font-weight:bold;vertical-align:top;">is_pypy</td><td style="vertical-align:top;">:</td><td><div>False</div></td></tr><tr><td style="font-weight:bold;vertical-align:top;">is_source</td><td style="vertical-align:top;">:</td><td><div>True</div></td></tr><tr><td style="font-weight:bold;vertical-align:top;">local_hosts</td><td style="vertical-align:top;">:</td><td><div><table><tr><td><div>fe80::22c9:d0ff:fed9:645f%en1</div></td></tr><tr><td><div>::ffff:127.0.0.1</div></td></tr><tr><td><div>::1</div></td></tr><tr><td><div>192.168.0.22</div></td></tr><tr><td><div>MacBook-Pro-de-Joao.local</div></td></tr><tr><td><div>127.0.0.1</div></td></tr></table></div></td></tr><tr><td style="font-weight:bold;vertical-align:top;">web2py_version</td><td style="vertical-align:top;">:</td><td><div>2.6.2-stable+timestamp.2013.09.13.22.53.04</div></td></tr></table></div></td></tr><tr><td style="font-weight:bold;vertical-align:top;">is_https</td><td style="vertical-align:top;">:</td><td><div>False</div></td></tr><tr><td style="font-weight:bold;vertical-align:top;">is_local</td><td style="vertical-align:top;">:</td><td><div>True</div></td></tr><tr><td style="font-weight:bold;vertical-align:top;">is_restful</td><td style="vertical-align:top;">:</td><td><div>False</div></td></tr><tr><td style="font-weight:bold;vertical-align:top;">now</td><td style="vertical-align:top;">:</td><td><div>datetime.datetime(2013, 9, 29, 23, 39, 54, 35863)</div></td></tr><tr><td style="font-weight:bold;vertical-align:top;">raw_args</td><td style="vertical-align:top;">:</td><td><div></div></td></tr><tr><td style="font-weight:bold;vertical-align:top;">raw_extension</td><td style="vertical-align:top;">:</td><td><div>None</div></td></tr><tr><td style="font-weight:bold;vertical-align:top;">url</td><td style="vertical-align:top;">:</td><td><div>/Cifra/default/index</div></td></tr><tr><td style="font-weight:bold;vertical-align:top;">utcnow</td><td style="vertical-align:top;">:</td><td><div>datetime.datetime(2013, 9, 30, 2, 39, 54, 35875)</div></td></tr><tr><td style="font-weight:bold;vertical-align:top;">uuid</td><td style="vertical-align:top;">:</td><td><div>Cifra/127.0.0.1.2013-09-29.23-39-54.0c48ee01-b221-42b7-9f84-61a576bfe8f0</div></td></tr><tr><td style="font-weight:bold;vertical-align:top;">wsgi</td><td style="vertical-align:top;">:</td><td><div>&lt;gluon.main.LazyWSGI object at 0x111951190&gt;</div></td></tr></table></div>'
tRp70
sS'frames'
p71
(lp72
(dp73
S'file'
p74
S'/Users/JoaoBtte/Documents/python/Hello/gluon/restricted.py'
p75
sS'dump'
p76
(dp77
S'environment'
p78
S"{'A': <class 'gluon.html.A'>, 'ANY_OF': <class 'gluon.validators.ANY_OF'>, 'Auth': <class 'gluon.tools.Auth'>, 'B': <class 'gluon.html.B'>, 'BEAUTIFY': <class 'gluon.html.BEAUTIFY'>, 'BODY': <class 'gluon.html.BODY'>, 'BR': <class 'gluon.html.BR'>, 'BUTTON': <class 'gluon.html.BUTTON'>, 'CAT': <class 'gluon.html.CAT'>, 'CENTER': <class 'gluon.html.CENTER'>, ...}"
p79
sS'ccode'
p80
S'<code object <module> at 0x11194e830, file "/Use.../Hello/applications/Cifra/models/db.py", line 17>'
p81
ssS'lnum'
p82
I217
sS'lines'
p83
(dp84
I212
S'    try:'
p85
sI213
S'        if isinstance(code, types.CodeType):'
p86
sI214
S'            ccode = code'
p87
sI215
S'        else:'
p88
sI216
S'            ccode = compile2(code, layer)'
p89
sI217
S'        exec ccode in environment'
p90
sI218
S'    except HTTP:'
p91
sI219
S'        raise'
p92
sI220
S'    except RestrictedError:'
p93
sI221
S'        # do not encapsulate (obfuscate) the original RestrictedError'
p94
ssS'call'
p95
S"(code='#import os\\n#if not request.env.web2py_runtime_ga...ble auditing\\n# auth.enable_record_versioning(db)\\n', environment={'A': <class 'gluon.html.A'>, 'ANY_OF': <class 'gluon.validators.ANY_OF'>, 'Auth': <class 'gluon.tools.Auth'>, 'B': <class 'gluon.html.B'>, 'BEAUTIFY': <class 'gluon.html.BEAUTIFY'>, 'BODY': <class 'gluon.html.BODY'>, 'BR': <class 'gluon.html.BR'>, 'BUTTON': <class 'gluon.html.BUTTON'>, 'CAT': <class 'gluon.html.CAT'>, 'CENTER': <class 'gluon.html.CENTER'>, ...}, layer='/Users/JoaoBtte/Documents/python/Hello/applications/Cifra/models/db.py')"
p96
sS'func'
p97
S'restricted'
p98
sa(dp99
g74
S'/Users/JoaoBtte/Documents/python/Hello/applications/Cifra/models/db.py'
p100
sg76
(dp101
S'username'
p102
S'undefined'
p103
sS'auth.define_tables'
p104
S'<bound method Auth.define_tables of <gluon.tools.Auth object>>'
p105
sS'builtinFalse'
p106
S'False'
p107
sS'auth'
p108
S'<gluon.tools.Auth object>'
p109
sS'signature'
p110
g103
ssg82
I53
sg83
(dp111
I48
S'from gluon.tools import Auth, Crud, Service, PluginManager, prettydate'
p112
sI49
S'auth = Auth(db)'
p113
sI50
S'crud, service, plugins = Crud(db), Service(), PluginManager()'
p114
sI51
S''
sI52
S'## create all tables needed by auth if not custom tables'
p115
sI53
S'auth.define_tables(username=False, signature=False)'
p116
sI54
S''
sI55
S'## configure email'
p117
sI56
S'mail = auth.settings.mailer'
p118
sI57
S"mail.settings.server = 'logging' or 'smtp.gmail.com:587'"
p119
ssg95
S'()'
p120
sg97
S'<module>'
p121
sa(dp122
g74
S'/Users/JoaoBtte/Documents/python/Hello/gluon/tools.py'
p123
sg76
(dp124
S'builtinformat'
p125
S'<built-in function format>'
p126
ssg82
I1728
sg83
(dp127
I1728
S"                        format='%(first_name)s %(last_name)s (%(id)s)'))"
p128
sI1729
S"        reference_table_user = 'reference %s' % settings.table_user_name"
p129
sI1730
S'        if not settings.table_group_name in db.tables:'
p130
sI1731
S'            extra_fields = settings.extra_fields.get('
p131
sI1732
S'                settings.table_group_name, []) + signature_list'
p132
sI1723
S'                    *extra_fields,'
p133
sI1724
S'                    **dict('
p134
sI1725
S'                        migrate=self.__get_migrate(settings.table_user_name,'
p135
sI1726
S'                                                   migrate),'
p136
sI1727
S'                        fake_migrate=fake_migrate,'
p137
ssg95
S'(self=<gluon.tools.Auth object>, username=False, signature=False, migrate=True, fake_migrate=False)'
p138
sg97
S'define_tables'
p139
sa(dp140
g74
S'/Users/JoaoBtte/Documents/python/Hello/gluon/dal.py'
p141
sg76
(dp142
S'fields'
p143
S'(<gluon.dal.Field object>, <gluon.dal.Field object>, <gluon.dal.Field object>, <gluon.dal.Field object>, <gluon.dal.Field object>, <gluon.dal.Field object>, <gluon.dal.Field object>)'
p144
sS'self'
p145
S'<DAL uri="postgres:******@localhost:5432/test">'
p146
sS'args'
p147
S"{'fake_migrate': False, 'format': '%(first_name)s %(last_name)s (%(id)s)', 'migrate': True}"
p148
sS'tablename'
p149
S"'auth_user'"
p150
sS'table'
p151
g103
sS'self.lazy_define_table'
p152
S'<bound method DAL.lazy_define_table of <DAL uri="postgres:******@localhost:5432/test">>'
p153
ssg82
I7881
sg83
(dp154
I7876
S'                    % (tablename,invalid_args))'
p155
sI7877
S'        if self._lazy_tables and not tablename in self._LAZY_TABLES:'
p156
sI7878
S'            self._LAZY_TABLES[tablename] = (tablename,fields,args)'
p157
sI7879
S'            table = None'
p158
sI7880
S'        else:'
p159
sI7881
S'            table = self.lazy_define_table(tablename,*fields,**args)'
p160
sI7882
S'        if not tablename in self.tables:'
p161
sI7883
S'            self.tables.append(tablename)'
p162
sI7884
S'        return table'
p163
sI7885
S''
ssg95
S'(self=<DAL uri="postgres:******@localhost:5432/test">, tablename=\'auth_user\', *fields=(<gluon.dal.Field object>, <gluon.dal.Field object>, <gluon.dal.Field object>, <gluon.dal.Field object>, <gluon.dal.Field object>, <gluon.dal.Field object>, <gluon.dal.Field object>), **args={\'fake_migrate\': False, \'format\': \'%(first_name)s %(last_name)s (%(id)s)\', \'migrate\': True})'
p164
sg97
S'define_table'
p165
sa(dp166
g74
S'/Users/JoaoBtte/Documents/python/Hello/gluon/dal.py'
p167
sg76
(dp168
S'polymodel'
p169
S'None'
p170
ssg82
I7918
sg83
(dp171
I7913
S'            try:'
p172
sI7914
S'                GLOBAL_LOCKER.acquire()'
p173
sI7915
S'                self._lastsql = self._adapter.create_table('
p174
sI7916
S'                    table,migrate=migrate,'
p175
sI7917
S'                    fake_migrate=fake_migrate,'
p176
sI7918
S'                    polymodel=polymodel)'
p177
sI7919
S'            finally:'
p178
sI7920
S'                GLOBAL_LOCKER.release()'
p179
sI7921
S'        else:'
p180
sI7922
S'            table._dbt = None'
p181
ssg95
S'(self=<DAL uri="postgres:******@localhost:5432/test">, tablename=\'auth_user\', *fields=(<gluon.dal.Field object>, <gluon.dal.Field object>, <gluon.dal.Field object>, <gluon.dal.Field object>, <gluon.dal.Field object>, <gluon.dal.Field object>, <gluon.dal.Field object>), **args={\'fake_migrate\': False, \'format\': \'%(first_name)s %(last_name)s (%(id)s)\', \'migrate\': True})'
p182
sg97
S'lazy_define_table'
p183
sa(dp184
g74
S'/Users/JoaoBtte/Documents/python/Hello/gluon/dal.py'
p185
sg76
(dp186
S'query'
p187
S"'CREATE TABLE auth_user(\\n    id SERIAL PRIMARY KE...VARCHAR(512),\\n    registration_id VARCHAR(512)\\n);'"
p188
sS'table'
p189
S'<Table auth_user (id,first_name,last_name,email,...stration_key,reset_password_key,registration_id)>'
p190
ssg82
I995
sg83
(dp191
I992
S'            if table._dbt:'
p192
sI993
S"                self.log('timestamp: %s\\n%s\\n'"
p193
sI994
S'                         % (datetime.datetime.today().isoformat(),'
p194
sI995
S'                            query), table)'
p195
sI996
S'            if not fake_migrate:'
p196
sI997
S'                self.create_sequence_and_triggers(query,table)'
p197
sI998
S'                table._db.commit()'
p198
sI999
S'                # Postgres geom fields are added now,'
p199
sI990
S''
sI991
S'        if not table._dbt or not self.file_exists(table._dbt):'
p200
ssg95
S'(self=<gluon.contrib.heroku.HerokuPostgresAdapter object>, table=<Table auth_user (id,first_name,last_name,email,...stration_key,reset_password_key,registration_id)>, migrate=True, fake_migrate=False, polymodel=None)'
p201
sg97
S'create_table'
p202
sa(dp203
g74
S'/Users/JoaoBtte/Documents/python/Hello/gluon/dal.py'
p204
sg76
(dp205
S'table'
p206
S'<Table auth_user (id,first_name,last_name,email,...stration_key,reset_password_key,registration_id)>'
p207
sS'self'
p208
S'<gluon.contrib.heroku.HerokuPostgresAdapter object>'
p209
sS'logfile'
p210
g103
sS'table._loggername'
p211
S"'applications/Cifra/databases/sql.log'"
p212
sS'self.file_open'
p213
S'<bound method HerokuPostgresAdapter.file_open of...uon.contrib.heroku.HerokuPostgresAdapter object>>'
p214
ssg82
I769
sg83
(dp215
I768
S'                table._loggername = pjoin(self.folder, logfilename)'
p216
sI769
S"            logfile = self.file_open(table._loggername, 'a')"
p217
sI770
S'            logfile.write(message)'
p218
sI771
S'            self.file_close(logfile)'
p219
sI772
S''
sI773
S''
sI764
S'        if table and table._dbt and writelog and self.folder:'
p220
sI765
S'            if isabs:'
p221
sI766
S'                table._loggername = logfilename'
p222
sI767
S'            else:'
p223
ssg95
S"(self=<gluon.contrib.heroku.HerokuPostgresAdapter object>, message='timestamp: 2013-09-29T23:39:54.045629\\nCREATE TAB...ARCHAR(512),\\n    registration_id VARCHAR(512)\\n);\\n', table=<Table auth_user (id,first_name,last_name,email,...stration_key,reset_password_key,registration_id)>)"
p224
sg97
S'log'
p225
sa(dp226
g74
S'/Users/JoaoBtte/Documents/python/Hello/gluon/dal.py'
p227
sg76
(dp228
S'mode'
p229
S"'a'"
p230
sS'global DatabaseStoredFile'
p231
S'<class gluon.dal.DatabaseStoredFile>'
p232
sS'filename'
p233
S"'applications/Cifra/databases/sql.log'"
p234
sS'self'
p235
S'<gluon.contrib.heroku.HerokuPostgresAdapter object>'
p236
sS'self.db'
p237
S'<DAL uri="postgres:******@localhost:5432/test">'
p238
ssg82
I4356
sg83
(dp239
I4352
S'    def file_exists(self, filename):'
p240
sI4353
S'        return DatabaseStoredFile.exists(self.db,filename)'
p241
sI4354
S''
sI4355
S"    def file_open(self, filename, mode='rb', lock=True):"
p242
sI4356
S'        return DatabaseStoredFile(self.db,filename,mode)'
p243
sI4357
S''
sI4358
S'    def file_close(self, fileobj):'
p244
sI4359
S'        fileobj.close_connection()'
p245
sI4360
S''
sI4351
S''
ssg95
S"(self=<gluon.contrib.heroku.HerokuPostgresAdapter object>, filename='applications/Cifra/databases/sql.log', mode='a', lock=True)"
p246
sg97
S'file_open'
p247
sa(dp248
g74
S'/Users/JoaoBtte/Documents/python/Hello/gluon/dal.py'
p249
sg76
(dp250
S'self.db.executesql'
p251
S'<bound method DAL.executesql of <DAL uri="postgres:******@localhost:5432/test">>'
p252
sS'self'
p253
S'<gluon.dal.DatabaseStoredFile instance>'
p254
sS'self.db'
p255
S'<DAL uri="postgres:******@localhost:5432/test">'
p256
sS'sql'
p257
S"'CREATE TABLE IF NOT EXISTS web2py_filesystem (path VARCHAR(255), content TEXT, PRIMARY KEY(path));'"
p258
ssg82
I4284
sg83
(dp259
I4288
S"        if mode in ('r','rw','a'):"
p260
sI4279
S'        if not self.web2py_filesystem:'
p261
sI4280
S"            if db._adapter.dbengine == 'mysql':"
p262
sI4281
S'                sql = "CREATE TABLE IF NOT EXISTS web2py_filesystem (path VARCHAR(255), content LONGTEXT, PRIMARY KEY(path) ) ENGINE=InnoDB;"'
p263
sI4282
S"            elif db._adapter.dbengine in ('postgres', 'sqlite'):"
p264
sI4283
S'                sql = "CREATE TABLE IF NOT EXISTS web2py_filesystem (path VARCHAR(255), content TEXT, PRIMARY KEY(path));"'
p265
sI4284
S'            self.db.executesql(sql)'
p266
sI4285
S'            DatabaseStoredFile.web2py_filesystem = True'
p267
sI4286
S'        self.p=0'
p268
sI4287
S"        self.data = ''"
p269
ssg95
S'(self=<gluon.dal.DatabaseStoredFile instance>, db=<DAL uri="postgres:******@localhost:5432/test">, filename=\'applications/Cifra/databases/sql.log\', mode=\'a\')'
p270
sg97
g26
sa(dp271
g74
S'/Users/JoaoBtte/Documents/python/Hello/gluon/dal.py'
p272
sg76
(dp273
S'query'
p274
S"'CREATE TABLE IF NOT EXISTS web2py_filesystem (path VARCHAR(255), content TEXT, PRIMARY KEY(path));'"
p275
sS'adapter'
p276
S'<gluon.contrib.heroku.HerokuPostgresAdapter object>'
p277
sS'adapter.execute'
p278
S'<bound method HerokuPostgresAdapter.execute of <gluon.contrib.heroku.HerokuPostgresAdapter object>>'
p279
ssg82
I8086
sg83
(dp280
I8081
S'        """'
p281
sI8082
S'        adapter = self._adapter'
p282
sI8083
S'        if placeholders:'
p283
sI8084
S'            adapter.execute(query, placeholders)'
p284
sI8085
S'        else:'
p285
sI8086
S'            adapter.execute(query)'
p286
sI8087
S'        if as_dict:'
p287
sI8088
S"            if not hasattr(adapter.cursor,'description'):"
p288
sI8089
S'                raise RuntimeError("database does not support executesql(...,as_dict=True)")'
p289
sI8090
S'            # Non-DAL legacy db query, converts cursor results to dict.'
p290
ssg95
S'(self=<DAL uri="postgres:******@localhost:5432/test">, query=\'CREATE TABLE IF NOT EXISTS web2py_filesystem (path VARCHAR(255), content TEXT, PRIMARY KEY(path));\', placeholders=None, as_dict=False, fields=None, colnames=None)'
p291
sg97
S'executesql'
p292
sa(dp293
g74
S'/Users/JoaoBtte/Documents/python/Hello/gluon/dal.py'
p294
sg76
(dp295
S'a'
S"('CREATE TABLE IF NOT EXISTS web2py_filesystem (path VARCHAR(255), content TEXT, PRIMARY KEY(path));',)"
p296
sS'self'
p297
S'<gluon.contrib.heroku.HerokuPostgresAdapter object>'
p298
sS'b'
g21
sS'self.log_execute'
p299
S'<bound method HerokuPostgresAdapter.log_execute ...uon.contrib.heroku.HerokuPostgresAdapter object>>'
p300
ssg82
I1828
sg83
(dp301
I1824
S'        del self.db._timings[:-TIMINGSSIZE]'
p302
sI1825
S'        return ret'
p303
sI1826
S''
sI1827
S'    def execute(self, *a, **b):'
p304
sI1828
S'        return self.log_execute(*a, **b)'
p305
sI1829
S''
sI1830
S'    def represent(self, obj, fieldtype):'
p306
sI1831
S'        field_is_type = fieldtype.startswith'
p307
sI1832
S'        if isinstance(obj, CALLABLETYPES):'
p308
sI1823
S'        self.db._timings.append((command,time.time()-t0))'
p309
ssg95
S"(self=<gluon.contrib.heroku.HerokuPostgresAdapter object>, *a=('CREATE TABLE IF NOT EXISTS web2py_filesystem (path VARCHAR(255), content TEXT, PRIMARY KEY(path));',), **b={})"
p310
sg97
S'execute'
p311
sa(dp312
g74
S'/Users/JoaoBtte/Documents/python/Hello/gluon/dal.py'
p313
sg76
(dp314
S'a'
S"('CREATE TABLE IF NOT EXISTS web2py_filesystem (path VARCHAR(255), content TEXT, PRIMARY KEY(path));',)"
p315
sS'b'
g21
sS'self'
p316
S'<gluon.contrib.heroku.HerokuPostgresAdapter object>'
p317
sS'ret'
p318
g103
sS'self.cursor'
p319
S'<cursor object at 0x10cf25ed8; closed: 0>'
p320
sS'command'
p321
S"'CREATE TABLE IF NOT EXISTS web2py_filesystem (path VARCHAR(255), content TEXT, PRIMARY KEY(path));'"
p322
sS'self.cursor.execute'
p323
S'<built-in method execute of psycopg2._psycopg.cursor object>'
p324
ssg82
I1822
sg83
(dp325
I1824
S'        del self.db._timings[:-TIMINGSSIZE]'
p326
sI1825
S'        return ret'
p327
sI1826
S''
sI1817
S'            command = self.filter_sql_command(command)'
p328
sI1818
S'        if self.db._debug:'
p329
sI1819
S"            LOGGER.debug('SQL: %s' % command)"
p330
sI1820
S'        self.db._lastsql = command'
p331
sI1821
S'        t0 = time.time()'
p332
sI1822
S'        ret = self.cursor.execute(command, *a[1:], **b)'
p333
sI1823
S'        self.db._timings.append((command,time.time()-t0))'
p334
ssg95
S"(self=<gluon.contrib.heroku.HerokuPostgresAdapter object>, *a=('CREATE TABLE IF NOT EXISTS web2py_filesystem (path VARCHAR(255), content TEXT, PRIMARY KEY(path));',), **b={})"
p335
sg97
S'log_execute'
p336
sasS'pyver'
p337
S'Python 2.7.2: /usr/bin/python (prefix: /System/Library/Frameworks/Python.framework/Versions/2.7)'
p338
sS'session'
p339
g69
(S's\xde\x0e\x00\x00<div><table><tr><td style="font-weight:bold;vertical-align:top;">auth</td><td style="vertical-align:top;">:</td><td><div><table><tr><td style="font-weight:bold;vertical-align:top;">expiration</td><td style="vertical-align:top;">:</td><td><div>3600</div></td></tr><tr><td style="font-weight:bold;vertical-align:top;">hmac_key</td><td style="vertical-align:top;">:</td><td><div>38797e45-9745-4128-b8c4-be9e115be486</div></td></tr><tr><td style="font-weight:bold;vertical-align:top;">last_visit</td><td style="vertical-align:top;">:</td><td><div>datetime.datetime(2013, 9, 29, 23, 39, 54, 35863)</div></td></tr><tr><td style="font-weight:bold;vertical-align:top;">user</td><td style="vertical-align:top;">:</td><td><div><table><tr><td style="font-weight:bold;vertical-align:top;">email</td><td style="vertical-align:top;">:</td><td><div>jbaumotte@gmail.com</div></td></tr><tr><td style="font-weight:bold;vertical-align:top;">first_name</td><td style="vertical-align:top;">:</td><td><div>Joao</div></td></tr><tr><td style="font-weight:bold;vertical-align:top;">id</td><td style="vertical-align:top;">:</td><td><div>1L</div></td></tr><tr><td style="font-weight:bold;vertical-align:top;">last_name</td><td style="vertical-align:top;">:</td><td><div>Baumotte</div></td></tr><tr><td style="font-weight:bold;vertical-align:top;">registration_id</td><td style="vertical-align:top;">:</td><td><div></div></td></tr><tr><td style="font-weight:bold;vertical-align:top;">registration_key</td><td style="vertical-align:top;">:</td><td><div></div></td></tr><tr><td style="font-weight:bold;vertical-align:top;">reset_password_key</td><td style="vertical-align:top;">:</td><td><div></div></td></tr></table></div></td></tr><tr><td style="font-weight:bold;vertical-align:top;">user_groups</td><td style="vertical-align:top;">:</td><td><div><table><tr><td style="font-weight:bold;vertical-align:top;">1</td><td style="vertical-align:top;">:</td><td><div>user_1</div></td></tr></table></div></td></tr></table></div></td></tr><tr><td style="font-weight:bold;vertical-align:top;">banda</td><td style="vertical-align:top;">:</td><td><div> Banda Eva</div></td></tr><tr><td style="font-weight:bold;vertical-align:top;">flash</td><td style="vertical-align:top;">:</td><td><div>None</div></td></tr><tr><td style="font-weight:bold;vertical-align:top;">letra</td><td style="vertical-align:top;">:</td><td><div>Tom: D\r\n\t\t\nA9               D9        A9    D9\nVou levar duas medidas na balan\xc3\xa7a\nA9               D9        F#m\nCaminhar entre avenidas do amor\n   D                  Bm\nVertentes que caem do c\xc3\xa9u\n  D                   Bm\nColares que tran\xc3\xa7am a flor\n   D9                 Bm        G   E4 E\nVerdades que doem no peito a raz\xc3\xa3o\n\nA9                 D9            A9    D9\nBom te ver doces momentos nessa estrada\nA9             D9          F#m\nBeira mar, acostamento j\xc3\xa1 se foi\n   D                    Bm\nPresentes que joguei no mar\n   D                Bm\nAs flores que l\xc3\xa1 deixei\n D              Bm                 G\nAinda me lembro como fosse hoje o adeus\n\n   E4 E\nVoltei\n\n   A                D\nS\xc3\xb3 vou querer ter voc\xc3\xaa aqui\n  C#7/4 C#7          F#m\nSorrindo te dar meu amor assim\n  D                  Bm                   G  E4 E\n\xc3\x89 claro que a vida ensina a gente a ser feliz\n  A                 D\nE vou te amar louco de paix\xc3\xa3o\n  C#7/4 C#7          F#m\nSe ainda me quer cheia de prazer\n   D                       Bm               G   E4 E\nEu sou um barco a vela e voc\xc3\xaa \xc3\xa9 o vento que leva\n        A\nMeu cora\xc3\xa7\xc3\xa3o</div></td></tr><tr><td style="font-weight:bold;vertical-align:top;">name</td><td style="vertical-align:top;">:</td><td><div> Duas Medidas </div></td></tr><tr><td style="font-weight:bold;vertical-align:top;">nome_musica</td><td style="vertical-align:top;">:</td><td><div>Duas_Medidas</div></td></tr></table></div>'
tRp340
sS'etype'
p341
S"<class 'psycopg2.InternalError'>"
p342
sS'date'
p343
S'Sun Sep 29 23:39:54 2013'
p344
sS'response'
p345
g69
(S's%\x12\x00\x00<div><table><tr><td style="font-weight:bold;vertical-align:top;">body</td><td style="vertical-align:top;">:</td><td><div>&lt;cStringIO.StringO object at 0x111978ce0&gt;</div></td></tr><tr><td style="font-weight:bold;vertical-align:top;">cookies</td><td style="vertical-align:top;">:</td><td><div><table></table></div></td></tr><tr><td style="font-weight:bold;vertical-align:top;">delimiters</td><td style="vertical-align:top;">:</td><td><div><table><tr><td><div>{{</div></td></tr><tr><td><div>}}</div></td></tr></table></div></td></tr><tr><td style="font-weight:bold;vertical-align:top;">files</td><td style="vertical-align:top;">:</td><td><div><table></table></div></td></tr><tr><td style="font-weight:bold;vertical-align:top;">flash</td><td style="vertical-align:top;">:</td><td><div>Logged in</div></td></tr><tr><td style="font-weight:bold;vertical-align:top;">generic_patterns</td><td style="vertical-align:top;">:</td><td><div><table><tr><td><div>*</div></td></tr></table></div></td></tr><tr><td style="font-weight:bold;vertical-align:top;">headers</td><td style="vertical-align:top;">:</td><td><div><table><tr><td style="font-weight:bold;vertical-align:top;">X-Powered-By</td><td style="vertical-align:top;">:</td><td><div>web2py</div></td></tr></table></div></td></tr><tr><td style="font-weight:bold;vertical-align:top;">menu</td><td style="vertical-align:top;">:</td><td><div><table></table></div></td></tr><tr><td style="font-weight:bold;vertical-align:top;">meta</td><td style="vertical-align:top;">:</td><td><div><table></table></div></td></tr><tr><td style="font-weight:bold;vertical-align:top;">models_to_run</td><td style="vertical-align:top;">:</td><td><div><table><tr><td><div>^\\w+\\.py$</div></td></tr><tr><td><div>^default/\\w+\\.py$</div></td></tr><tr><td><div>^default/index/\\w+\\.py$</div></td></tr></table></div></td></tr><tr><td style="font-weight:bold;vertical-align:top;">postprocessing</td><td style="vertical-align:top;">:</td><td><div><table></table></div></td></tr><tr><td style="font-weight:bold;vertical-align:top;">session_client</td><td style="vertical-align:top;">:</td><td><div>127.0.0.1</div></td></tr><tr><td style="font-weight:bold;vertical-align:top;">session_cookie_compression_level</td><td style="vertical-align:top;">:</td><td><div>None</div></td></tr><tr><td style="font-weight:bold;vertical-align:top;">session_cookie_expires</td><td style="vertical-align:top;">:</td><td><div>None</div></td></tr><tr><td style="font-weight:bold;vertical-align:top;">session_cookie_key</td><td style="vertical-align:top;">:</td><td><div>None</div></td></tr><tr><td style="font-weight:bold;vertical-align:top;">session_data_name</td><td style="vertical-align:top;">:</td><td><div>session_data_cifra</div></td></tr><tr><td style="font-weight:bold;vertical-align:top;">session_file</td><td style="vertical-align:top;">:</td><td><div>&lt;open file &#x27;/Users/JoaoBtte/Documents/python/Hello/applications/Cifra/sessions/127.0.0.1-ef120df4-6768-43e3-9896-3a734e50e758&#x27;, mode &#x27;rb+&#x27; at 0x10d697300&gt;</div></td></tr><tr><td style="font-weight:bold;vertical-align:top;">session_filename</td><td style="vertical-align:top;">:</td><td><div>/Users/JoaoBtte/Documents/python/Hello/applications/Cifra/sessions/127.0.0.1-ef120df4-6768-43e3-9896-3a734e50e758</div></td></tr><tr><td style="font-weight:bold;vertical-align:top;">session_hash</td><td style="vertical-align:top;">:</td><td><div>9f860fe65d97f31a2b3b62ca834c0eb6</div></td></tr><tr><td style="font-weight:bold;vertical-align:top;">session_id</td><td style="vertical-align:top;">:</td><td><div>127.0.0.1-ef120df4-6768-43e3-9896-3a734e50e758</div></td></tr><tr><td style="font-weight:bold;vertical-align:top;">session_id_name</td><td style="vertical-align:top;">:</td><td><div>session_id_cifra</div></td></tr><tr><td style="font-weight:bold;vertical-align:top;">session_locked</td><td style="vertical-align:top;">:</td><td><div>True</div></td></tr><tr><td style="font-weight:bold;vertical-align:top;">session_masterapp</td><td style="vertical-align:top;">:</td><td><div>Cifra</div></td></tr><tr><td style="font-weight:bold;vertical-align:top;">session_new</td><td style="vertical-align:top;">:</td><td><div>False</div></td></tr><tr><td style="font-weight:bold;vertical-align:top;">session_storage_type</td><td style="vertical-align:top;">:</td><td><div>file</div></td></tr><tr><td style="font-weight:bold;vertical-align:top;">status</td><td style="vertical-align:top;">:</td><td><div>200</div></td></tr><tr><td style="font-weight:bold;vertical-align:top;">view</td><td style="vertical-align:top;">:</td><td><div>default/index.html</div></td></tr></table></div>'
tRp346
sS'locals'
p347
(dp348
S'a'
S"('CREATE TABLE IF NOT EXISTS web2py_filesystem (path VARCHAR(255), content TEXT, PRIMARY KEY(path));',)"
p349
sS'self'
p350
S'<gluon.contrib.heroku.HerokuPostgresAdapter object>'
p351
sS'b'
g21
sS'command'
p352
S"'CREATE TABLE IF NOT EXISTS web2py_filesystem (path VARCHAR(255), content TEXT, PRIMARY KEY(path));'"
p353
sS't0'
p354
S'1380508794.045672'
p355
sssS'traceback'
p356
S'Traceback (most recent call last):\n  File "/Users/JoaoBtte/Documents/python/Hello/gluon/restricted.py", line 217, in restricted\n    exec ccode in environment\n  File "/Users/JoaoBtte/Documents/python/Hello/applications/Cifra/models/db.py", line 53, in <module>\n    auth.define_tables(username=False, signature=False)\n  File "/Users/JoaoBtte/Documents/python/Hello/gluon/tools.py", line 1728, in define_tables\n    format=\'%(first_name)s %(last_name)s (%(id)s)\'))\n  File "/Users/JoaoBtte/Documents/python/Hello/gluon/dal.py", line 7881, in define_table\n    table = self.lazy_define_table(tablename,*fields,**args)\n  File "/Users/JoaoBtte/Documents/python/Hello/gluon/dal.py", line 7918, in lazy_define_table\n    polymodel=polymodel)\n  File "/Users/JoaoBtte/Documents/python/Hello/gluon/dal.py", line 995, in create_table\n    query), table)\n  File "/Users/JoaoBtte/Documents/python/Hello/gluon/dal.py", line 769, in log\n    logfile = self.file_open(table._loggername, \'a\')\n  File "/Users/JoaoBtte/Documents/python/Hello/gluon/dal.py", line 4356, in file_open\n    return DatabaseStoredFile(self.db,filename,mode)\n  File "/Users/JoaoBtte/Documents/python/Hello/gluon/dal.py", line 4284, in __init__\n    self.db.executesql(sql)\n  File "/Users/JoaoBtte/Documents/python/Hello/gluon/dal.py", line 8086, in executesql\n    adapter.execute(query)\n  File "/Users/JoaoBtte/Documents/python/Hello/gluon/dal.py", line 1828, in execute\n    return self.log_execute(*a, **b)\n  File "/Users/JoaoBtte/Documents/python/Hello/gluon/dal.py", line 1822, in log_execute\n    ret = self.cursor.execute(command, *a[1:], **b)\nInternalError: current transaction is aborted, commands ignored until end of transaction block\n\n'
p357
s.