(dp1
S'output'
p2
S'<class \'HTMLParser.HTMLParseError\'> bad end tag: u"</SC\'+\'RIPT>", at line 17, column 166'
p3
sS'layer'
p4
S'/Users/JoaoBtte/Documents/python/Hello/applications/Cifra/controllers/default.py'
p5
sS'code'
p6
S'import cifra_club\n\ndef index():\n\n    form = SQLFORM.factory(Field(\'url\',\n                                 label=T(\'Insert the URL \'),\n                                 requires=IS_URL(\'cifraclub.com.br\')))\n\n    if form.process().accepted:\n\n        cifra = cifra_club.get_song(form.vars.url)\n        ## cifra[0] = name; cifra[1] = nome_musica; cifra[2] = letra\n        session.name = cifra[0].title().split("-")[0]\n        session.banda = cifra[0].split("-")[1]\n        session.nome_musica = cifra[1]\n        session.letra = cifra[2]\n        redirect(URL(\'cifra\'))\n    return dict(form=form)\n\n\ndef user():\n    return dict(form=auth())\n\ndef cifra():\n    response.title = session.name\n    response.subtitles = session.banda\n    return dict()\n\n@cache.action()\ndef download():\n    """\n    allows downloading of uploaded files\n    http://..../[app]/default/download/[filename]\n    """\n    return response.download(request, db)\n\n\ndef call():\n    """\n    exposes services. for example:\n    http://..../[app]/default/call/jsonrpc\n    decorate with @services.jsonrpc the functions to expose\n    supports xml, json, xmlrpc, jsonrpc, amfrpc, rss, csv\n    """\n    return service()\n\n\n@auth.requires_signature()\ndef data():\n    """\n    http://..../[app]/default/data/tables\n    http://..../[app]/default/data/create/[table]\n    http://..../[app]/default/data/read/[table]/[id]\n    http://..../[app]/default/data/update/[table]/[id]\n    http://..../[app]/default/data/delete/[table]/[id]\n    http://..../[app]/default/data/select/[table]\n    http://..../[app]/default/data/search/[table]\n    but URLs must be signed, i.e. linked with\n      A(\'table\',_href=URL(\'data/tables\',user_signature=True))\n    or with the signed load operator\n      LOAD(\'default\',\'data.load\',args=\'tables\',ajax=True,user_signature=True)\n    """\n    return dict(form=crud())\n\nresponse._vars=response._caller(index)\n'
p7
sS'snapshot'
p8
(dp9
S'exception'
p10
(dp11
S'__module__'
p12
S"'HTMLParser'"
p13
sS'__getslice__'
p14
S"<method-wrapper '__getslice__' of HTMLParseError object>"
p15
sS'__str__'
p16
S'<bound method HTMLParseError.__str__ of HTMLParseError()>'
p17
sS'__reduce__'
p18
S'<built-in method __reduce__ of HTMLParseError object>'
p19
sS'__dict__'
p20
S'{\'lineno\': 17, \'msg\': \'bad end tag: u"</SC\\\'+\\\'RIPT>"\', \'offset\': 165}'
p21
sS'__sizeof__'
p22
S'<built-in method __sizeof__ of HTMLParseError object>'
p23
sS'__weakref__'
p24
S'None'
p25
sS'__init__'
p26
S'<bound method HTMLParseError.__init__ of HTMLParseError()>'
p27
sS'__setattr__'
p28
S"<method-wrapper '__setattr__' of HTMLParseError object>"
p29
sS'__reduce_ex__'
p30
S'<built-in method __reduce_ex__ of HTMLParseError object>'
p31
sS'__new__'
p32
S'<built-in method __new__ of type object>'
p33
sS'__format__'
p34
S'<built-in method __format__ of HTMLParseError object>'
p35
sS'__class__'
p36
S"<class 'HTMLParser.HTMLParseError'>"
p37
sS'lineno'
p38
S'17'
p39
sS'msg'
p40
S'\'bad end tag: u"</SC\\\'+\\\'RIPT>"\''
p41
sS'__doc__'
p42
S"'Exception raised for all parse errors.'"
p43
sS'__getitem__'
p44
S"<method-wrapper '__getitem__' of HTMLParseError object>"
p45
sS'__setstate__'
p46
S'<built-in method __setstate__ of HTMLParseError object>'
p47
sS'__getattribute__'
p48
S"<method-wrapper '__getattribute__' of HTMLParseError object>"
p49
sS'args'
p50
S'()'
p51
sS'__subclasshook__'
p52
S'<built-in method __subclasshook__ of type object>'
p53
sS'offset'
p54
S'165'
p55
sS'__unicode__'
p56
S'<built-in method __unicode__ of HTMLParseError object>'
p57
sS'__delattr__'
p58
S"<method-wrapper '__delattr__' of HTMLParseError object>"
p59
sS'__repr__'
p60
S"<method-wrapper '__repr__' of HTMLParseError object>"
p61
sS'__hash__'
p62
S"<method-wrapper '__hash__' of HTMLParseError object>"
p63
ssS'evalue'
p64
S'bad end tag: u"</SC\'+\'RIPT>", at line 17, column 166'
p65
sS'request'
p66
cgluon.html
XML_unpickle
p67
(S's\xf3c\x00\x00<div><table><tr><td style="font-weight:bold;vertical-align:top;">ajax</td><td style="vertical-align:top;">:</td><td><div>False</div></td></tr><tr><td style="font-weight:bold;vertical-align:top;">application</td><td style="vertical-align:top;">:</td><td><div>Cifra</div></td></tr><tr><td style="font-weight:bold;vertical-align:top;">args</td><td style="vertical-align:top;">:</td><td><div><table></table></div></td></tr><tr><td style="font-weight:bold;vertical-align:top;">cid</td><td style="vertical-align:top;">:</td><td><div>None</div></td></tr><tr><td style="font-weight:bold;vertical-align:top;">client</td><td style="vertical-align:top;">:</td><td><div>127.0.0.1</div></td></tr><tr><td style="font-weight:bold;vertical-align:top;">controller</td><td style="vertical-align:top;">:</td><td><div>default</div></td></tr><tr><td style="font-weight:bold;vertical-align:top;">cookies</td><td style="vertical-align:top;">:</td><td><div><table><tr><td style="font-weight:bold;vertical-align:top;">session_id_admin</td><td style="vertical-align:top;">:</td><td><div>127.0.0.1-4274dca4-1eac-4efb-b963-f405572e84d7<table><tr><td style="font-weight:bold;vertical-align:top;">comment</td><td style="vertical-align:top;">:</td><td><div></div></td></tr><tr><td style="font-weight:bold;vertical-align:top;">domain</td><td style="vertical-align:top;">:</td><td><div></div></td></tr><tr><td style="font-weight:bold;vertical-align:top;">expires</td><td style="vertical-align:top;">:</td><td><div></div></td></tr><tr><td style="font-weight:bold;vertical-align:top;">httponly</td><td style="vertical-align:top;">:</td><td><div></div></td></tr><tr><td style="font-weight:bold;vertical-align:top;">max-age</td><td style="vertical-align:top;">:</td><td><div></div></td></tr><tr><td style="font-weight:bold;vertical-align:top;">path</td><td style="vertical-align:top;">:</td><td><div></div></td></tr><tr><td style="font-weight:bold;vertical-align:top;">secure</td><td style="vertical-align:top;">:</td><td><div></div></td></tr><tr><td style="font-weight:bold;vertical-align:top;">version</td><td style="vertical-align:top;">:</td><td><div></div></td></tr></table></div></td></tr><tr><td style="font-weight:bold;vertical-align:top;">session_id_cifra</td><td style="vertical-align:top;">:</td><td><div>127.0.0.1-d107fe7e-5827-43f8-8fac-0f99228e14f9<table><tr><td style="font-weight:bold;vertical-align:top;">comment</td><td style="vertical-align:top;">:</td><td><div></div></td></tr><tr><td style="font-weight:bold;vertical-align:top;">domain</td><td style="vertical-align:top;">:</td><td><div></div></td></tr><tr><td style="font-weight:bold;vertical-align:top;">expires</td><td style="vertical-align:top;">:</td><td><div></div></td></tr><tr><td style="font-weight:bold;vertical-align:top;">httponly</td><td style="vertical-align:top;">:</td><td><div></div></td></tr><tr><td style="font-weight:bold;vertical-align:top;">max-age</td><td style="vertical-align:top;">:</td><td><div></div></td></tr><tr><td style="font-weight:bold;vertical-align:top;">path</td><td style="vertical-align:top;">:</td><td><div></div></td></tr><tr><td style="font-weight:bold;vertical-align:top;">secure</td><td style="vertical-align:top;">:</td><td><div></div></td></tr><tr><td style="font-weight:bold;vertical-align:top;">version</td><td style="vertical-align:top;">:</td><td><div></div></td></tr></table></div></td></tr><tr><td style="font-weight:bold;vertical-align:top;">session_id_welcome</td><td style="vertical-align:top;">:</td><td><div>127.0.0.1-d3b98bee-3c8d-49a8-b6e4-e18c612d201a<table><tr><td style="font-weight:bold;vertical-align:top;">comment</td><td style="vertical-align:top;">:</td><td><div></div></td></tr><tr><td style="font-weight:bold;vertical-align:top;">domain</td><td style="vertical-align:top;">:</td><td><div></div></td></tr><tr><td style="font-weight:bold;vertical-align:top;">expires</td><td style="vertical-align:top;">:</td><td><div></div></td></tr><tr><td style="font-weight:bold;vertical-align:top;">httponly</td><td style="vertical-align:top;">:</td><td><div></div></td></tr><tr><td style="font-weight:bold;vertical-align:top;">max-age</td><td style="vertical-align:top;">:</td><td><div></div></td></tr><tr><td style="font-weight:bold;vertical-align:top;">path</td><td style="vertical-align:top;">:</td><td><div></div></td></tr><tr><td style="font-weight:bold;vertical-align:top;">secure</td><td style="vertical-align:top;">:</td><td><div></div></td></tr><tr><td style="font-weight:bold;vertical-align:top;">version</td><td style="vertical-align:top;">:</td><td><div></div></td></tr></table></div></td></tr></table></div></td></tr><tr><td style="font-weight:bold;vertical-align:top;">env</td><td style="vertical-align:top;">:</td><td><div><table><tr><td style="font-weight:bold;vertical-align:top;">CONTENT_LENGTH</td><td style="vertical-align:top;">:</td><td><div>389</div></td></tr><tr><td style="font-weight:bold;vertical-align:top;">CONTENT_TYPE</td><td style="vertical-align:top;">:</td><td><div>multipart/form-data; boundary=----WebKitFormBoundaryzaCZM7NUAHKCcjA2</div></td></tr><tr><td style="font-weight:bold;vertical-align:top;">HTTP_ACCEPT</td><td style="vertical-align:top;">:</td><td><div>text/html,application/xhtml+xml,application/xml;q=0.9,*/*;q=0.8</div></td></tr><tr><td style="font-weight:bold;vertical-align:top;">HTTP_ACCEPT_ENCODING</td><td style="vertical-align:top;">:</td><td><div>gzip,deflate,sdch</div></td></tr><tr><td style="font-weight:bold;vertical-align:top;">HTTP_ACCEPT_LANGUAGE</td><td style="vertical-align:top;">:</td><td><div>pt-BR,pt;q=0.8,en-US;q=0.6,en;q=0.4</div></td></tr><tr><td style="font-weight:bold;vertical-align:top;">HTTP_CACHE_CONTROL</td><td style="vertical-align:top;">:</td><td><div>max-age=0</div></td></tr><tr><td style="font-weight:bold;vertical-align:top;">HTTP_CONNECTION</td><td style="vertical-align:top;">:</td><td><div>keep-alive</div></td></tr><tr><td style="font-weight:bold;vertical-align:top;">HTTP_CONTENT_LENGTH</td><td style="vertical-align:top;">:</td><td><div>389</div></td></tr><tr><td style="font-weight:bold;vertical-align:top;">HTTP_CONTENT_TYPE</td><td style="vertical-align:top;">:</td><td><div>multipart/form-data; boundary=----WebKitFormBoundaryzaCZM7NUAHKCcjA2</div></td></tr><tr><td style="font-weight:bold;vertical-align:top;">HTTP_COOKIE</td><td style="vertical-align:top;">:</td><td><div>session_id_welcome=127.0.0.1-d3b98bee-3c8d-49a8-b6e4-e18c612d201a; session_id_admin=127.0.0.1-4274dca4-1eac-4efb-b963-f405572e84d7; session_id_cifra=127.0.0.1-d107fe7e-5827-43f8-8fac-0f99228e14f9</div></td></tr><tr><td style="font-weight:bold;vertical-align:top;">HTTP_HOST</td><td style="vertical-align:top;">:</td><td><div>127.0.0.1:8000</div></td></tr><tr><td style="font-weight:bold;vertical-align:top;">HTTP_ORIGIN</td><td style="vertical-align:top;">:</td><td><div>http://127.0.0.1:8000</div></td></tr><tr><td style="font-weight:bold;vertical-align:top;">HTTP_REFERER</td><td style="vertical-align:top;">:</td><td><div>http://127.0.0.1:8000/Cifra/default/index</div></td></tr><tr><td style="font-weight:bold;vertical-align:top;">HTTP_USER_AGENT</td><td style="vertical-align:top;">:</td><td><div>Mozilla/5.0 (Macintosh; Intel Mac OS X 10_8_4) AppleWebKit/537.36 (KHTML, like Gecko) Chrome/29.0.1547.65 Safari/537.36</div></td></tr><tr><td style="font-weight:bold;vertical-align:top;">PATH_INFO</td><td style="vertical-align:top;">:</td><td><div>/Cifra/default/index</div></td></tr><tr><td style="font-weight:bold;vertical-align:top;">QUERY_STRING</td><td style="vertical-align:top;">:</td><td><div></div></td></tr><tr><td style="font-weight:bold;vertical-align:top;">REMOTE_ADDR</td><td style="vertical-align:top;">:</td><td><div>127.0.0.1</div></td></tr><tr><td style="font-weight:bold;vertical-align:top;">REMOTE_PORT</td><td style="vertical-align:top;">:</td><td><div>59231</div></td></tr><tr><td style="font-weight:bold;vertical-align:top;">REQUEST_METHOD</td><td style="vertical-align:top;">:</td><td><div>POST</div></td></tr><tr><td style="font-weight:bold;vertical-align:top;">SCRIPT_NAME</td><td style="vertical-align:top;">:</td><td><div></div></td></tr><tr><td style="font-weight:bold;vertical-align:top;">SERVER_NAME</td><td style="vertical-align:top;">:</td><td><div>MacBook-Pro-de-Joao.local</div></td></tr><tr><td style="font-weight:bold;vertical-align:top;">SERVER_PORT</td><td style="vertical-align:top;">:</td><td><div>8000</div></td></tr><tr><td style="font-weight:bold;vertical-align:top;">SERVER_PROTOCOL</td><td style="vertical-align:top;">:</td><td><div>HTTP/1.1</div></td></tr><tr><td style="font-weight:bold;vertical-align:top;">SERVER_SOFTWARE</td><td style="vertical-align:top;">:</td><td><div>Rocket 1.2.6</div></td></tr><tr><td style="font-weight:bold;vertical-align:top;">app_folders</td><td style="vertical-align:top;">:</td><td><div>set([&#x27;/Users/JoaoBtte/Documents/python/Hello/applications/admin/&#x27;, &#x27;/Users/JoaoBtte/Documents/python/Hello/applications/welcome/&#x27;, &#x27;/Users/JoaoBtte/Documents/python/Hello/applications/Cifra/&#x27;])</div></td></tr><tr><td style="font-weight:bold;vertical-align:top;">applications_parent</td><td style="vertical-align:top;">:</td><td><div>/Users/JoaoBtte/Documents/python/Hello</div></td></tr><tr><td style="font-weight:bold;vertical-align:top;">cmd_args</td><td style="vertical-align:top;">:</td><td><div><table></table></div></td></tr><tr><td style="font-weight:bold;vertical-align:top;">cmd_options</td><td style="vertical-align:top;">:</td><td><div>&lt;Values at 0x1044cda28: {&#x27;verbose&#x27;: False, &#x27;ip&#x27;: &#x27;127.0.0.1&#x27;, &#x27;debuglevel&#x27;: 30, &#x27;with_scheduler&#x27;: False, &#x27;ips&#x27;: [&#x27;fe80::22c9:d0ff:fed9:645f%en1&#x27;, &#x27;192.168.0.22&#x27;], &#x27;shutdown_timeout&#x27;: 5, &#x27;taskbar&#x27;: False, &#x27;with_coverage&#x27;: False, &#x27;port&#x27;: 8000, &#x27;maxthreads&#x27;: None, &#x27;softcron&#x27;: False, &#x27;server_name&#x27;: &#x27;MacBook-Pro-de-Joao.local&#x27;, &#x27;bpython&#x27;: False, &#x27;nogui&#x27;: False, &#x27;pid_filename&#x27;: &#x27;httpserver.pid&#x27;, &#x27;extcron&#x27;: False, &#x27;runcron&#x27;: False, &#x27;run_system_tests&#x27;: False, &#x27;test&#x27;: None, &#x27;folder&#x27;: &#x27;/Users/JoaoBtte/Documents/python/Hello&#x27;, &#x27;config&#x27;: &#x27;&#x27;, &#x27;minthreads&#x27;: None, &#x27;winservice&#x27;: &#x27;&#x27;, &#x27;shell&#x27;: None, &#x27;run&#x27;: &#x27;&#x27;, &#x27;log_filename&#x27;: &#x27;httpserver.log&#x27;, &#x27;profiler_dir&#x27;: None, &#x27;args&#x27;: [&#x27;&#x27;], &#x27;socket_timeout&#x27;: 5, &#x27;ssl_ca_certificate&#x27;: None, &#x27;scheduler&#x27;: None, &#x27;interfaces&#x27;: None, &#x27;ssl_private_key&#x27;: &#x27;&#x27;, &#x27;scheduler_groups&#x27;: None, &#x27;password&#x27;: &#x27;&lt;ask&gt;&#x27;, &#x27;request_queue_size&#x27;: 5, &#x27;ssl_certificate&#x27;: &#x27;&#x27;, &#x27;cronjob&#x27;: False, &#x27;numthreads&#x27;: None, &#x27;quiet&#x27;: False, &#x27;import_models&#x27;: False, &#x27;timeout&#x27;: 10, &#x27;plain&#x27;: False, &#x27;nobanner&#x27;: False}&gt;</div></td></tr><tr><td style="font-weight:bold;vertical-align:top;">content_length</td><td style="vertical-align:top;">:</td><td><div>389</div></td></tr><tr><td style="font-weight:bold;vertical-align:top;">content_type</td><td style="vertical-align:top;">:</td><td><div>multipart/form-data; boundary=----WebKitFormBoundaryzaCZM7NUAHKCcjA2</div></td></tr><tr><td style="font-weight:bold;vertical-align:top;">db_sessions</td><td style="vertical-align:top;">:</td><td><div>set([])</div></td></tr><tr><td style="font-weight:bold;vertical-align:top;">debugging</td><td style="vertical-align:top;">:</td><td><div>True</div></td></tr><tr><td style="font-weight:bold;vertical-align:top;">gluon_parent</td><td style="vertical-align:top;">:</td><td><div>/Users/JoaoBtte/Documents/python/Hello</div></td></tr><tr><td style="font-weight:bold;vertical-align:top;">http_accept</td><td style="vertical-align:top;">:</td><td><div>text/html,application/xhtml+xml,application/xml;q=0.9,*/*;q=0.8</div></td></tr><tr><td style="font-weight:bold;vertical-align:top;">http_accept_encoding</td><td style="vertical-align:top;">:</td><td><div>gzip,deflate,sdch</div></td></tr><tr><td style="font-weight:bold;vertical-align:top;">http_accept_language</td><td style="vertical-align:top;">:</td><td><div>pt-BR,pt;q=0.8,en-US;q=0.6,en;q=0.4</div></td></tr><tr><td style="font-weight:bold;vertical-align:top;">http_cache_control</td><td style="vertical-align:top;">:</td><td><div>max-age=0</div></td></tr><tr><td style="font-weight:bold;vertical-align:top;">http_connection</td><td style="vertical-align:top;">:</td><td><div>keep-alive</div></td></tr><tr><td style="font-weight:bold;vertical-align:top;">http_content_length</td><td style="vertical-align:top;">:</td><td><div>389</div></td></tr><tr><td style="font-weight:bold;vertical-align:top;">http_content_type</td><td style="vertical-align:top;">:</td><td><div>multipart/form-data; boundary=----WebKitFormBoundaryzaCZM7NUAHKCcjA2</div></td></tr><tr><td style="font-weight:bold;vertical-align:top;">http_cookie</td><td style="vertical-align:top;">:</td><td><div>session_id_welcome=127.0.0.1-d3b98bee-3c8d-49a8-b6e4-e18c612d201a; session_id_admin=127.0.0.1-4274dca4-1eac-4efb-b963-f405572e84d7; session_id_cifra=127.0.0.1-d107fe7e-5827-43f8-8fac-0f99228e14f9</div></td></tr><tr><td style="font-weight:bold;vertical-align:top;">http_host</td><td style="vertical-align:top;">:</td><td><div>127.0.0.1:8000</div></td></tr><tr><td style="font-weight:bold;vertical-align:top;">http_origin</td><td style="vertical-align:top;">:</td><td><div>http://127.0.0.1:8000</div></td></tr><tr><td style="font-weight:bold;vertical-align:top;">http_referer</td><td style="vertical-align:top;">:</td><td><div>http://127.0.0.1:8000/Cifra/default/index</div></td></tr><tr><td style="font-weight:bold;vertical-align:top;">http_user_agent</td><td style="vertical-align:top;">:</td><td><div>Mozilla/5.0 (Macintosh; Intel Mac OS X 10_8_4) AppleWebKit/537.36 (KHTML, like Gecko) Chrome/29.0.1547.65 Safari/537.36</div></td></tr><tr><td style="font-weight:bold;vertical-align:top;">is_jython</td><td style="vertical-align:top;">:</td><td><div>False</div></td></tr><tr><td style="font-weight:bold;vertical-align:top;">is_pypy</td><td style="vertical-align:top;">:</td><td><div>False</div></td></tr><tr><td style="font-weight:bold;vertical-align:top;">is_source</td><td style="vertical-align:top;">:</td><td><div>True</div></td></tr><tr><td style="font-weight:bold;vertical-align:top;">local_hosts</td><td style="vertical-align:top;">:</td><td><div><table><tr><td><div>fe80::22c9:d0ff:fed9:645f%en1</div></td></tr><tr><td><div>::ffff:127.0.0.1</div></td></tr><tr><td><div>::1</div></td></tr><tr><td><div>192.168.0.22</div></td></tr><tr><td><div>MacBook-Pro-de-Joao.local</div></td></tr><tr><td><div>127.0.0.1</div></td></tr></table></div></td></tr><tr><td style="font-weight:bold;vertical-align:top;">path_info</td><td style="vertical-align:top;">:</td><td><div>/Cifra/default/index</div></td></tr><tr><td style="font-weight:bold;vertical-align:top;">query_string</td><td style="vertical-align:top;">:</td><td><div></div></td></tr><tr><td style="font-weight:bold;vertical-align:top;">remote_addr</td><td style="vertical-align:top;">:</td><td><div>127.0.0.1</div></td></tr><tr><td style="font-weight:bold;vertical-align:top;">remote_port</td><td style="vertical-align:top;">:</td><td><div>59231</div></td></tr><tr><td style="font-weight:bold;vertical-align:top;">request_method</td><td style="vertical-align:top;">:</td><td><div>POST</div></td></tr><tr><td style="font-weight:bold;vertical-align:top;">request_uri</td><td style="vertical-align:top;">:</td><td><div>/Cifra/default/index</div></td></tr><tr><td style="font-weight:bold;vertical-align:top;">script_name</td><td style="vertical-align:top;">:</td><td><div></div></td></tr><tr><td style="font-weight:bold;vertical-align:top;">server_name</td><td style="vertical-align:top;">:</td><td><div>MacBook-Pro-de-Joao.local</div></td></tr><tr><td style="font-weight:bold;vertical-align:top;">server_port</td><td style="vertical-align:top;">:</td><td><div>8000</div></td></tr><tr><td style="font-weight:bold;vertical-align:top;">server_protocol</td><td style="vertical-align:top;">:</td><td><div>HTTP/1.1</div></td></tr><tr><td style="font-weight:bold;vertical-align:top;">server_software</td><td style="vertical-align:top;">:</td><td><div>Rocket 1.2.6</div></td></tr><tr><td style="font-weight:bold;vertical-align:top;">web2py_path</td><td style="vertical-align:top;">:</td><td><div>/Users/JoaoBtte/Documents/python/Hello</div></td></tr><tr><td style="font-weight:bold;vertical-align:top;">web2py_version</td><td style="vertical-align:top;">:</td><td><div>2.6.2-stable+timestamp.2013.09.13.22.53.04</div></td></tr><tr><td style="font-weight:bold;vertical-align:top;">wsgi.errors</td><td style="vertical-align:top;">:</td><td><div>&lt;open file &#x27;&lt;stderr&gt;&#x27;, mode &#x27;w&#x27; at 0x103977270&gt;</div></td></tr><tr><td style="font-weight:bold;vertical-align:top;">wsgi.file_wrapper</td><td style="vertical-align:top;">:</td><td><div>&lt;class wsgiref.util.FileWrapper at 0x104904328&gt;</div></td></tr><tr><td style="font-weight:bold;vertical-align:top;">wsgi.input</td><td style="vertical-align:top;">:</td><td><div>&lt;socket._fileobject object at 0x1092275d0&gt;</div></td></tr><tr><td style="font-weight:bold;vertical-align:top;">wsgi.multiprocess</td><td style="vertical-align:top;">:</td><td><div>False</div></td></tr><tr><td style="font-weight:bold;vertical-align:top;">wsgi.multithread</td><td style="vertical-align:top;">:</td><td><div>True</div></td></tr><tr><td style="font-weight:bold;vertical-align:top;">wsgi.run_once</td><td style="vertical-align:top;">:</td><td><div>False</div></td></tr><tr><td style="font-weight:bold;vertical-align:top;">wsgi.url_scheme</td><td style="vertical-align:top;">:</td><td><div>http</div></td></tr><tr><td style="font-weight:bold;vertical-align:top;">wsgi.version</td><td style="vertical-align:top;">:</td><td><div><table><tr><td><div>1</div></td></tr><tr><td><div>0</div></td></tr></table></div></td></tr><tr><td style="font-weight:bold;vertical-align:top;">wsgi_errors</td><td style="vertical-align:top;">:</td><td><div>&lt;open file &#x27;&lt;stderr&gt;&#x27;, mode &#x27;w&#x27; at 0x103977270&gt;</div></td></tr><tr><td style="font-weight:bold;vertical-align:top;">wsgi_file_wrapper</td><td style="vertical-align:top;">:</td><td><div>&lt;class wsgiref.util.FileWrapper at 0x104904328&gt;</div></td></tr><tr><td style="font-weight:bold;vertical-align:top;">wsgi_input</td><td style="vertical-align:top;">:</td><td><div>&lt;socket._fileobject object at 0x1092275d0&gt;</div></td></tr><tr><td style="font-weight:bold;vertical-align:top;">wsgi_multiprocess</td><td style="vertical-align:top;">:</td><td><div>False</div></td></tr><tr><td style="font-weight:bold;vertical-align:top;">wsgi_multithread</td><td style="vertical-align:top;">:</td><td><div>True</div></td></tr><tr><td style="font-weight:bold;vertical-align:top;">wsgi_run_once</td><td style="vertical-align:top;">:</td><td><div>False</div></td></tr><tr><td style="font-weight:bold;vertical-align:top;">wsgi_url_scheme</td><td style="vertical-align:top;">:</td><td><div>http</div></td></tr><tr><td style="font-weight:bold;vertical-align:top;">wsgi_version</td><td style="vertical-align:top;">:</td><td><div><table><tr><td><div>1</div></td></tr><tr><td><div>0</div></td></tr></table></div></td></tr></table></div></td></tr><tr><td style="font-weight:bold;vertical-align:top;">extension</td><td style="vertical-align:top;">:</td><td><div>html</div></td></tr><tr><td style="font-weight:bold;vertical-align:top;">folder</td><td style="vertical-align:top;">:</td><td><div>/Users/JoaoBtte/Documents/python/Hello/applications/Cifra/</div></td></tr><tr><td style="font-weight:bold;vertical-align:top;">function</td><td style="vertical-align:top;">:</td><td><div>index</div></td></tr><tr><td style="font-weight:bold;vertical-align:top;">global_settings</td><td style="vertical-align:top;">:</td><td><div><table><tr><td style="font-weight:bold;vertical-align:top;">app_folders</td><td style="vertical-align:top;">:</td><td><div>set([&#x27;/Users/JoaoBtte/Documents/python/Hello/applications/admin/&#x27;, &#x27;/Users/JoaoBtte/Documents/python/Hello/applications/welcome/&#x27;, &#x27;/Users/JoaoBtte/Documents/python/Hello/applications/Cifra/&#x27;])</div></td></tr><tr><td style="font-weight:bold;vertical-align:top;">applications_parent</td><td style="vertical-align:top;">:</td><td><div>/Users/JoaoBtte/Documents/python/Hello</div></td></tr><tr><td style="font-weight:bold;vertical-align:top;">cmd_args</td><td style="vertical-align:top;">:</td><td><div><table></table></div></td></tr><tr><td style="font-weight:bold;vertical-align:top;">cmd_options</td><td style="vertical-align:top;">:</td><td><div>&lt;Values at 0x1044cda28: {&#x27;verbose&#x27;: False, &#x27;ip&#x27;: &#x27;127.0.0.1&#x27;, &#x27;debuglevel&#x27;: 30, &#x27;with_scheduler&#x27;: False, &#x27;ips&#x27;: [&#x27;fe80::22c9:d0ff:fed9:645f%en1&#x27;, &#x27;192.168.0.22&#x27;], &#x27;shutdown_timeout&#x27;: 5, &#x27;taskbar&#x27;: False, &#x27;with_coverage&#x27;: False, &#x27;port&#x27;: 8000, &#x27;maxthreads&#x27;: None, &#x27;softcron&#x27;: False, &#x27;server_name&#x27;: &#x27;MacBook-Pro-de-Joao.local&#x27;, &#x27;bpython&#x27;: False, &#x27;nogui&#x27;: False, &#x27;pid_filename&#x27;: &#x27;httpserver.pid&#x27;, &#x27;extcron&#x27;: False, &#x27;runcron&#x27;: False, &#x27;run_system_tests&#x27;: False, &#x27;test&#x27;: None, &#x27;folder&#x27;: &#x27;/Users/JoaoBtte/Documents/python/Hello&#x27;, &#x27;config&#x27;: &#x27;&#x27;, &#x27;minthreads&#x27;: None, &#x27;winservice&#x27;: &#x27;&#x27;, &#x27;shell&#x27;: None, &#x27;run&#x27;: &#x27;&#x27;, &#x27;log_filename&#x27;: &#x27;httpserver.log&#x27;, &#x27;profiler_dir&#x27;: None, &#x27;args&#x27;: [&#x27;&#x27;], &#x27;socket_timeout&#x27;: 5, &#x27;ssl_ca_certificate&#x27;: None, &#x27;scheduler&#x27;: None, &#x27;interfaces&#x27;: None, &#x27;ssl_private_key&#x27;: &#x27;&#x27;, &#x27;scheduler_groups&#x27;: None, &#x27;password&#x27;: &#x27;&lt;ask&gt;&#x27;, &#x27;request_queue_size&#x27;: 5, &#x27;ssl_certificate&#x27;: &#x27;&#x27;, &#x27;cronjob&#x27;: False, &#x27;numthreads&#x27;: None, &#x27;quiet&#x27;: False, &#x27;import_models&#x27;: False, &#x27;timeout&#x27;: 10, &#x27;plain&#x27;: False, &#x27;nobanner&#x27;: False}&gt;</div></td></tr><tr><td style="font-weight:bold;vertical-align:top;">db_sessions</td><td style="vertical-align:top;">:</td><td><div>set([])</div></td></tr><tr><td style="font-weight:bold;vertical-align:top;">debugging</td><td style="vertical-align:top;">:</td><td><div>True</div></td></tr><tr><td style="font-weight:bold;vertical-align:top;">gluon_parent</td><td style="vertical-align:top;">:</td><td><div>/Users/JoaoBtte/Documents/python/Hello</div></td></tr><tr><td style="font-weight:bold;vertical-align:top;">is_jython</td><td style="vertical-align:top;">:</td><td><div>False</div></td></tr><tr><td style="font-weight:bold;vertical-align:top;">is_pypy</td><td style="vertical-align:top;">:</td><td><div>False</div></td></tr><tr><td style="font-weight:bold;vertical-align:top;">is_source</td><td style="vertical-align:top;">:</td><td><div>True</div></td></tr><tr><td style="font-weight:bold;vertical-align:top;">local_hosts</td><td style="vertical-align:top;">:</td><td><div><table><tr><td><div>fe80::22c9:d0ff:fed9:645f%en1</div></td></tr><tr><td><div>::ffff:127.0.0.1</div></td></tr><tr><td><div>::1</div></td></tr><tr><td><div>192.168.0.22</div></td></tr><tr><td><div>MacBook-Pro-de-Joao.local</div></td></tr><tr><td><div>127.0.0.1</div></td></tr></table></div></td></tr><tr><td style="font-weight:bold;vertical-align:top;">web2py_version</td><td style="vertical-align:top;">:</td><td><div>2.6.2-stable+timestamp.2013.09.13.22.53.04</div></td></tr></table></div></td></tr><tr><td style="font-weight:bold;vertical-align:top;">is_https</td><td style="vertical-align:top;">:</td><td><div>False</div></td></tr><tr><td style="font-weight:bold;vertical-align:top;">is_local</td><td style="vertical-align:top;">:</td><td><div>True</div></td></tr><tr><td style="font-weight:bold;vertical-align:top;">is_restful</td><td style="vertical-align:top;">:</td><td><div>False</div></td></tr><tr><td style="font-weight:bold;vertical-align:top;">now</td><td style="vertical-align:top;">:</td><td><div>datetime.datetime(2013, 9, 19, 14, 36, 43, 984379)</div></td></tr><tr><td style="font-weight:bold;vertical-align:top;">raw_args</td><td style="vertical-align:top;">:</td><td><div></div></td></tr><tr><td style="font-weight:bold;vertical-align:top;">raw_extension</td><td style="vertical-align:top;">:</td><td><div>None</div></td></tr><tr><td style="font-weight:bold;vertical-align:top;">url</td><td style="vertical-align:top;">:</td><td><div>/Cifra/default/index</div></td></tr><tr><td style="font-weight:bold;vertical-align:top;">utcnow</td><td style="vertical-align:top;">:</td><td><div>datetime.datetime(2013, 9, 19, 17, 36, 43, 984392)</div></td></tr><tr><td style="font-weight:bold;vertical-align:top;">uuid</td><td style="vertical-align:top;">:</td><td><div>Cifra/127.0.0.1.2013-09-19.14-36-43.bb081f7d-b91e-4468-9582-e0738a6a826c</div></td></tr><tr><td style="font-weight:bold;vertical-align:top;">wsgi</td><td style="vertical-align:top;">:</td><td><div>&lt;gluon.main.LazyWSGI object at 0x10a0dac50&gt;</div></td></tr></table></div>'
tRp68
sS'frames'
p69
(lp70
(dp71
S'file'
p72
S'/Users/JoaoBtte/Documents/python/Hello/gluon/restricted.py'
p73
sS'dump'
p74
(dp75
S'environment'
p76
S"{'A': <class 'gluon.html.A'>, 'ANY_OF': <class 'gluon.validators.ANY_OF'>, 'Auth': <class 'gluon.tools.Auth'>, 'B': <class 'gluon.html.B'>, 'BEAUTIFY': <class 'gluon.html.BEAUTIFY'>, 'BODY': <class 'gluon.html.BODY'>, 'BR': <class 'gluon.html.BR'>, 'BUTTON': <class 'gluon.html.BUTTON'>, 'CAT': <class 'gluon.html.CAT'>, 'CENTER': <class 'gluon.html.CENTER'>, ...}"
p77
sS'ccode'
p78
S'<code object <module> at 0x10c9a0bb0, file "/Use...plications/Cifra/controllers/default.py", line 1>'
p79
ssS'lnum'
p80
I217
sS'lines'
p81
(dp82
I212
S'    try:'
p83
sI213
S'        if isinstance(code, types.CodeType):'
p84
sI214
S'            ccode = code'
p85
sI215
S'        else:'
p86
sI216
S'            ccode = compile2(code, layer)'
p87
sI217
S'        exec ccode in environment'
p88
sI218
S'    except HTTP:'
p89
sI219
S'        raise'
p90
sI220
S'    except RestrictedError:'
p91
sI221
S'        # do not encapsulate (obfuscate) the original RestrictedError'
p92
ssS'call'
p93
S"(code='import cifra_club\\n\\ndef index():\\n\\n    form = SQLF...=crud())\\n\\nresponse._vars=response._caller(index)\\n', environment={'A': <class 'gluon.html.A'>, 'ANY_OF': <class 'gluon.validators.ANY_OF'>, 'Auth': <class 'gluon.tools.Auth'>, 'B': <class 'gluon.html.B'>, 'BEAUTIFY': <class 'gluon.html.BEAUTIFY'>, 'BODY': <class 'gluon.html.BODY'>, 'BR': <class 'gluon.html.BR'>, 'BUTTON': <class 'gluon.html.BUTTON'>, 'CAT': <class 'gluon.html.CAT'>, 'CENTER': <class 'gluon.html.CENTER'>, ...}, layer='/Users/JoaoBtte/Documents/python/Hello/applications/Cifra/controllers/default.py')"
p94
sS'func'
p95
S'restricted'
p96
sa(dp97
g72
S'/Users/JoaoBtte/Documents/python/Hello/applications/Cifra/controllers/default.py'
p98
sg74
(dp99
sg80
I65
sg81
(dp100
I54
S'    http://..../[app]/default/data/update/[table]/[id]'
p101
sI55
S'    http://..../[app]/default/data/delete/[table]/[id]'
p102
sI56
S'    http://..../[app]/default/data/select/[table]'
p103
sI57
S'    http://..../[app]/default/data/search/[table]'
p104
sI58
S'    but URLs must be signed, i.e. linked with'
p105
sI59
S"      A('table',_href=URL('data/tables',user_signature=True))"
p106
sI60
S'    or with the signed load operator'
p107
sI61
S"      LOAD('default','data.load',args='tables',ajax=True,user_signature=True)"
p108
sI62
S'    """'
p109
sI63
S'    return dict(form=crud())'
p110
ssg93
S'()'
p111
sg95
S'<module>'
p112
sa(dp113
g72
S'/Users/JoaoBtte/Documents/python/Hello/gluon/globals.py'
p114
sg74
(dp115
S'self'
p116
S'undefined'
p117
sS'f'
S'<function index>'
p118
ssg80
I378
sg81
(dp119
I373
S'        self.menu = []             # used by the default view layout'
p120
sI374
S'        self.files = []            # used by web2py_ajax.html'
p121
sI375
S'        self.generic_patterns = []  # patterns to allow generic views'
p122
sI376
S"        self.delimiters = ('{{', '}}')"
p123
sI377
S'        self._vars = None'
p124
sI378
S'        self._caller = lambda f: f()'
p125
sI379
S'        self._view_environment = None'
p126
sI380
S'        self._custom_commit = None'
p127
sI381
S'        self._custom_rollback = None'
p128
sI382
S''
ssg93
S'(f=<function index>)'
p129
sg95
S'<lambda>'
p130
sa(dp131
g72
S'/Users/JoaoBtte/Documents/python/Hello/applications/Cifra/controllers/default.py'
p132
sg74
(dp133
S'form.vars'
p134
S"<Storage {'url': 'http://www.globo.com', 'id': None}>"
p135
sS'form'
p136
S'<gluon.sqlhtml.SQLFORM object>'
p137
sS'cifra_club.get_song'
p138
S'<function get_song>'
p139
sS'form.vars.url'
p140
S"'http://www.globo.com'"
p141
sS'global cifra'
p142
S'<function cifra>'
p143
sS'global cifra_club'
p144
S"<module 'applications.Cifra.modules.cifra_club' from 'applications/Cifra/modules/cifra_club.py'>"
p145
ssg80
I11
sg81
(dp146
I6
S"                                 label=T('Insert the URL '),"
p147
sI7
S"                                 requires=IS_URL('cifraclub.com.br')))"
p148
sI8
S''
sI9
S'    if form.process().accepted:'
p149
sI10
S''
sI11
S'        cifra = cifra_club.get_song(form.vars.url)'
p150
sI12
S'        ## cifra[0] = name; cifra[1] = nome_musica; cifra[2] = letra'
p151
sI13
S'        session.name = cifra[0].title().split("-")[0]'
p152
sI14
S'        session.banda = cifra[0].split("-")[1]'
p153
sI15
S'        session.nome_musica = cifra[1]'
p154
ssg93
S'()'
p155
sg95
S'index'
p156
sa(dp157
g72
S'/Users/JoaoBtte/Documents/python/Hello/applications/Cifra/modules/cifra_club.py'
p158
sg74
(dp159
S'soup'
p160
g117
sS'global BeautifulSoup'
p161
S"<class 'bs4.BeautifulSoup'>"
p162
sS'page'
p163
S"'\\n\\n\\n\\n<!DOCTYPE html>\\n\\n<!--[if IE]><![endif]--><ht...>\\n<!-- P\\xc3\\xa1gina gerada em 19/09/2013 14:17:34 -->\\n'"
p164
ssg80
I36
sg81
(dp165
I32
S'    ##close file because we dont need it anymore:'
p166
sI33
S'    html.close()'
p167
sI34
S''
sI35
S'    ##parse the file downloaded'
p168
sI36
S'    soup = BeautifulSoup(page)'
p169
sI37
S''
sI38
S'    ## Isolating the lyrics and tabs section'
p170
sI39
S'    musica = soup.find(id="cifra_cnt")'
p171
sI40
S'    nome_musica = soup.find(id="ai_musica")'
p172
sI31
S''
ssg93
S"(url='http://www.globo.com')"
p173
sg95
S'get_song'
p174
sa(dp175
g72
S'/Library/Python/2.7/site-packages/bs4/__init__.py'
p176
sg74
(dp177
S'self._feed'
p178
S'<bound method BeautifulSoup._feed of \n<!DOCTYPE ...\n//--&gt;<script language="JavaScript"></script>>'
p179
sS'self'
p180
S'\n<!DOCTYPE html>\n\n<!--[if IE]><![endif]--><html>...}\n//--&gt;<script language="JavaScript"></script>'
p181
ssg80
I183
sg81
(dp182
I178
S'        for (self.markup, self.original_encoding, self.declared_html_encoding,'
p183
sI179
S'         self.contains_replacement_characters) in ('
p184
sI180
S'            self.builder.prepare_markup(markup, from_encoding)):'
p185
sI181
S'            self.reset()'
p186
sI182
S'            try:'
p187
sI183
S'                self._feed()'
p188
sI184
S'                break'
p189
sI185
S'            except ParserRejectedMarkup:'
p190
sI186
S'                pass'
p191
sI187
S''
ssg93
S'(self=\n<!DOCTYPE html>\n\n<!--[if IE]><![endif]--><html>...}\n//--&gt;<script language="JavaScript"></script>, markup=\'\\n\\n\\n\\n<!DOCTYPE html>\\n\\n<!--[if IE]><![endif]--><ht...>\\n<!-- P\\xc3\\xa1gina gerada em 19/09/2013 14:17:34 -->\\n\', features=[\'html\', \'fast\'], builder=<bs4.builder._htmlparser.HTMLParserTreeBuilder object>, parse_only=None, from_encoding=None, **kwargs={})'
p192
sg95
g26
sa(dp193
g72
S'/Library/Python/2.7/site-packages/bs4/__init__.py'
p194
sg74
(dp195
S'self.builder.feed'
p196
S'<bound method HTMLParserTreeBuilder.feed of <bs4.builder._htmlparser.HTMLParserTreeBuilder object>>'
p197
sS'self'
p198
S'\n<!DOCTYPE html>\n\n<!--[if IE]><![endif]--><html>...}\n//--&gt;<script language="JavaScript"></script>'
p199
sS'self.markup'
p200
S"u'\\n\\n\\n\\n<!DOCTYPE html>\\n\\n<!--[if IE]><![endi...-- P\\xe1gina gerada em 19/09/2013 14:17:34 -->\\n'"
p201
sS'self.builder'
p202
S'<bs4.builder._htmlparser.HTMLParserTreeBuilder object>'
p203
ssg80
I197
sg81
(dp204
I192
S''
sI193
S'    def _feed(self):'
p205
sI194
S'        # Convert the document to Unicode.'
p206
sI195
S'        self.builder.reset()'
p207
sI196
S''
sI197
S'        self.builder.feed(self.markup)'
p208
sI198
S'        # Close out any unfinished strings and close all the open tags.'
p209
sI199
S'        self.endData()'
p210
sI200
S'        while self.currentTag.name != self.ROOT_TAG_NAME:'
p211
sI201
S'            self.popTag()'
p212
ssg93
S'(self=\n<!DOCTYPE html>\n\n<!--[if IE]><![endif]--><html>...}\n//--&gt;<script language="JavaScript"></script>)'
p213
sg95
S'_feed'
p214
sa(dp215
g72
S'/Library/Python/2.7/site-packages/bs4/builder/_htmlparser.py'
p216
sg74
(dp217
S'e'
S'HTMLParseError()'
p218
ssg80
I156
sg81
(dp219
I160
S'# string.'
p220
sI151
S'        try:'
p221
sI152
S'            parser.feed(markup)'
p222
sI153
S'        except HTMLParseError, e:'
p223
sI154
S'            warnings.warn(RuntimeWarning('
p224
sI155
S'                "Python\'s built-in HTMLParser cannot parse the given document. This is not a bug in Beautiful Soup. The best solution is to install an external parser (lxml or html5lib), and use Beautiful Soup with that parser. See http://www.crummy.com/software/BeautifulSoup/bs4/doc/#installing-a-parser for help."))'
p225
sI156
S'            raise e'
p226
sI157
S''
sI158
S'# Patch 3.2 versions of HTMLParser earlier than 3.2.3 to use some'
p227
sI159
S"# 3.2.3 code. This ensures they don't treat markup like <p></p> as a"
p228
ssg93
S"(self=<bs4.builder._htmlparser.HTMLParserTreeBuilder object>, markup=u'\\n\\n\\n\\n<!DOCTYPE html>\\n\\n<!--[if IE]><![endi...-- P\\xe1gina gerada em 19/09/2013 14:17:34 -->\\n')"
p229
sg95
S'feed'
p230
sasS'pyver'
p231
S'Python 2.7.2: /usr/bin/python (prefix: /System/Library/Frameworks/Python.framework/Versions/2.7)'
p232
sS'session'
p233
g67
(S's\x99\x06\x00\x00<div><table><tr><td style="font-weight:bold;vertical-align:top;">banda</td><td style="vertical-align:top;">:</td><td><div> Banda Eva</div></td></tr><tr><td style="font-weight:bold;vertical-align:top;">letra</td><td style="vertical-align:top;">:</td><td><div>\n\r\nTom: D\r\n\t\t\nA9               D9        A9    D9\nVou levar duas medidas na balan\xc3\xa7a\nA9               D9        F#m\nCaminhar entre avenidas do amor\n   D                  Bm\nVertentes que caem do c\xc3\xa9u\n  D                   Bm\nColares que tran\xc3\xa7am a flor\n   D9                 Bm        G   E4 E\nVerdades que doem no peito a raz\xc3\xa3o\n\nA9                 D9            A9    D9\nBom te ver doces momentos nessa estrada\nA9             D9          F#m\nBeira mar, acostamento j\xc3\xa1 se foi\n   D                    Bm\nPresentes que joguei no mar\n   D                Bm\nAs flores que l\xc3\xa1 deixei\n D              Bm                 G\nAinda me lembro como fosse hoje o adeus\n\n   E4 E\nVoltei\n\n   A                D\nS\xc3\xb3 vou querer ter voc\xc3\xaa aqui\n  C#7/4 C#7          F#m\nSorrindo te dar meu amor assim\n  D                  Bm                   G  E4 E\n\xc3\x89 claro que a vida ensina a gente a ser feliz\n  A                 D\nE vou te amar louco de paix\xc3\xa3o\n  C#7/4 C#7          F#m\nSe ainda me quer cheia de prazer\n   D                       Bm               G   E4 E\nEu sou um barco a vela e voc\xc3\xaa \xc3\xa9 o vento que leva\n        A\nMeu cora\xc3\xa7\xc3\xa3o\n</div></td></tr><tr><td style="font-weight:bold;vertical-align:top;">name</td><td style="vertical-align:top;">:</td><td><div>Duas Medidas </div></td></tr><tr><td style="font-weight:bold;vertical-align:top;">nome_musica</td><td style="vertical-align:top;">:</td><td><div>Duas_Medidas</div></td></tr></table></div>'
tRp234
sS'etype'
p235
S"<class 'HTMLParser.HTMLParseError'>"
p236
sS'date'
p237
S'Thu Sep 19 14:36:44 2013'
p238
sS'response'
p239
g67
(S'sA-\x00\x00<div><table><tr><td style="font-weight:bold;vertical-align:top;">body</td><td style="vertical-align:top;">:</td><td><div>&lt;cStringIO.StringO object at 0x10cac60d8&gt;</div></td></tr><tr><td style="font-weight:bold;vertical-align:top;">cookies</td><td style="vertical-align:top;">:</td><td><div><table></table></div></td></tr><tr><td style="font-weight:bold;vertical-align:top;">delimiters</td><td style="vertical-align:top;">:</td><td><div><table><tr><td><div>{{</div></td></tr><tr><td><div>}}</div></td></tr></table></div></td></tr><tr><td style="font-weight:bold;vertical-align:top;">files</td><td style="vertical-align:top;">:</td><td><div><table></table></div></td></tr><tr><td style="font-weight:bold;vertical-align:top;">flash</td><td style="vertical-align:top;">:</td><td><div>Success!</div></td></tr><tr><td style="font-weight:bold;vertical-align:top;">generic_patterns</td><td style="vertical-align:top;">:</td><td><div><table></table></div></td></tr><tr><td style="font-weight:bold;vertical-align:top;">google_analytics_id</td><td style="vertical-align:top;">:</td><td><div>None</div></td></tr><tr><td style="font-weight:bold;vertical-align:top;">headers</td><td style="vertical-align:top;">:</td><td><div><table><tr><td style="font-weight:bold;vertical-align:top;">X-Powered-By</td><td style="vertical-align:top;">:</td><td><div>web2py</div></td></tr></table></div></td></tr><tr><td style="font-weight:bold;vertical-align:top;">logo</td><td style="vertical-align:top;">:</td><td><div><a class="brand" data-w2p_disable_with="default" href="http://www.web2py.com/"><b>web<span>2</span>py</b>&trade;&nbsp;</a></div></td></tr><tr><td style="font-weight:bold;vertical-align:top;">menu</td><td style="vertical-align:top;">:</td><td><div><table><tr><td><div><table><tr><td><div>Home</div></td></tr><tr><td><div>False</div></td></tr><tr><td><div>/Cifra/default/index</div></td></tr><tr><td><div><table></table></div></td></tr></table></div></td></tr><tr><td><div><table><tr><td><div><span class="highlighted">web2py</span></div></td></tr><tr><td><div>False</div></td></tr><tr><td><div>http://web2py.com</div></td></tr><tr><td><div><table><tr><td><div><table><tr><td><div>My Sites</div></td></tr><tr><td><div>False</div></td></tr><tr><td><div>/admin/default/site</div></td></tr></table></div></td></tr><tr><td><div><table><tr><td><div>This App</div></td></tr><tr><td><div>False</div></td></tr><tr><td><div>/admin/default/design/Cifra</div></td></tr><tr><td><div>[(&lt;lazyT &#x27;Controller&#x27;&gt;, False, &#x27;/admin/default/edit/Cifra/controllers/default.py&#x27;), (&lt;lazyT &#x27;View&#x27;&gt;, False, &#x27;/admin/default/edit/Cifra/views/default/index.html&#x27;), (&lt;lazyT &#x27;Layout&#x27;&gt;, False, &#x27;/admin/default/edit/Cifra/views/layout.html&#x27;), (&lt;lazyT &#x27;Stylesheet&#x27;&gt;, False, &#x27;/admin/default/edit/Cifra/static/css/web2py.css&#x27;), (&lt;lazyT &#x27;DB Model&#x27;&gt;, False, &#x27;/admin/default/edit/Cifra/models/db.py&#x27;), (&lt;lazyT &#x27;Menu Model&#x27;&gt;, False, &#x27;/admin/default/edit/Cifra/models/menu.py&#x27;), (&lt;lazyT &#x27;Database&#x27;&gt;, False, &#x27;/Cifra/appadmin/index&#x27;), (&lt;lazyT &#x27;Errors&#x27;&gt;, False, &#x27;/admin/default/errors/Cifra&#x27;), (&lt;lazyT &#x27;About&#x27;&gt;, False, &#x27;/admin/default/about/Cifra&#x27;)]</div></td></tr></table></div></td></tr><tr><td><div><table><tr><td><div>web2py.com</div></td></tr><tr><td><div>False</div></td></tr><tr><td><div>http://www.web2py.com</div></td></tr><tr><td><div>[(&lt;lazyT &#x27;Download&#x27;&gt;, False, &#x27;http://www.web2py.com/examples/default/download&#x27;), (&lt;lazyT &#x27;Support&#x27;&gt;, False, &#x27;http://www.web2py.com/examples/default/support&#x27;), (&lt;lazyT &#x27;Demo&#x27;&gt;, False, &#x27;http://web2py.com/demo_admin&#x27;), (&lt;lazyT &#x27;Quick Examples&#x27;&gt;, False, &#x27;http://web2py.com/examples/default/examples&#x27;), (&lt;lazyT &#x27;FAQ&#x27;&gt;, False, &#x27;http://web2py.com/AlterEgo&#x27;), (&lt;lazyT &#x27;Videos&#x27;&gt;, False, &#x27;http://www.web2py.com/examples/default/videos/&#x27;), (&lt;lazyT &#x27;Free Applications&#x27;&gt;, False, &#x27;http://web2py.com/appliances&#x27;), (&lt;lazyT &#x27;Plugins&#x27;&gt;, False, &#x27;http://web2py.com/plugins&#x27;), (&lt;lazyT &#x27;Layouts&#x27;&gt;, False, &#x27;http://web2py.com/layouts&#x27;), (&lt;lazyT &#x27;Recipes&#x27;&gt;, False, &#x27;http://web2pyslices.com/&#x27;), (&lt;lazyT &#x27;Semantic&#x27;&gt;, False, &#x27;http://web2py.com/semantic&#x27;)]</div></td></tr></table></div></td></tr><tr><td><div><table><tr><td><div>Documentation</div></td></tr><tr><td><div>False</div></td></tr><tr><td><div>http://www.web2py.com/book</div></td></tr><tr><td><div>[(&lt;lazyT &#x27;Preface&#x27;&gt;, False, &#x27;http://www.web2py.com/book/default/chapter/00&#x27;), (&lt;lazyT &#x27;Introduction&#x27;&gt;, False, &#x27;http://www.web2py.com/book/default/chapter/01&#x27;), (&lt;lazyT &#x27;Python&#x27;&gt;, False, &#x27;http://www.web2py.com/book/default/chapter/02&#x27;), (&lt;lazyT &#x27;Overview&#x27;&gt;, False, &#x27;http://www.web2py.com/book/default/chapter/03&#x27;), (&lt;lazyT &#x27;The Core&#x27;&gt;, False, &#x27;http://www.web2py.com/book/default/chapter/04&#x27;), (&lt;lazyT &#x27;The Views&#x27;&gt;, False, &#x27;http://www.web2py.com/book/default/chapter/05&#x27;), (&lt;lazyT &#x27;Database&#x27;&gt;, False, &#x27;http://www.web2py.com/book/default/chapter/06&#x27;), (&lt;lazyT &#x27;Forms and Validators&#x27;&gt;, False, &#x27;http://www.web2py.com/book/default/chapter/07&#x27;), (&lt;lazyT &#x27;Email and SMS&#x27;&gt;, False, &#x27;http://www.web2py.com/book/default/chapter/08&#x27;), (&lt;lazyT &#x27;Access Control&#x27;&gt;, False, &#x27;http://www.web2py.com/book/default/chapter/09&#x27;), (&lt;lazyT &#x27;Services&#x27;&gt;, False, &#x27;http://www.web2py.com/book/default/chapter/10&#x27;), (&lt;lazyT &#x27;Ajax Recipes&#x27;&gt;, False, &#x27;http://www.web2py.com/book/default/chapter/11&#x27;), (&lt;lazyT &#x27;Components and Plugins&#x27;&gt;, False, &#x27;http://www.web2py.com/book/default/chapter/12&#x27;), (&lt;lazyT &#x27;Deployment Recipes&#x27;&gt;, False, &#x27;http://www.web2py.com/book/default/chapter/13&#x27;), (&lt;lazyT &#x27;Other Recipes&#x27;&gt;, False, &#x27;http://www.web2py.com/book/default/chapter/14&#x27;), (&lt;lazyT &#x27;Buy this book&#x27;&gt;, False, &#x27;http://stores.lulu.com/web2py&#x27;)]</div></td></tr></table></div></td></tr><tr><td><div><table><tr><td><div>Community</div></td></tr><tr><td><div>False</div></td></tr><tr><td><div>None</div></td></tr><tr><td><div>[(&lt;lazyT &#x27;Groups&#x27;&gt;, False, &#x27;http://www.web2py.com/examples/default/usergroups&#x27;), (&lt;lazyT &#x27;Twitter&#x27;&gt;, False, &#x27;http://twitter.com/web2py&#x27;), (&lt;lazyT &#x27;Live Chat&#x27;&gt;, False, &#x27;http://webchat.freenode.net/?channels=web2py&#x27;)]</div></td></tr></table></div></td></tr><tr><td><div><table><tr><td><div>Plugins</div></td></tr><tr><td><div>False</div></td></tr><tr><td><div>None</div></td></tr><tr><td><div>[(&#x27;plugin_wiki&#x27;, False, &#x27;http://web2py.com/examples/default/download&#x27;), (&lt;lazyT &#x27;Other Plugins&#x27;&gt;, False, &#x27;http://web2py.com/plugins&#x27;), (&lt;lazyT &#x27;Layout Plugins&#x27;&gt;, False, &#x27;http://web2py.com/layouts&#x27;)]</div></td></tr></table></div></td></tr></table></div></td></tr></table></div></td></tr></table></div></td></tr><tr><td style="font-weight:bold;vertical-align:top;">meta</td><td style="vertical-align:top;">:</td><td><div><table><tr><td style="font-weight:bold;vertical-align:top;">author</td><td style="vertical-align:top;">:</td><td><div>Your Name &lt;you@example.com&gt;</div></td></tr><tr><td style="font-weight:bold;vertical-align:top;">description</td><td style="vertical-align:top;">:</td><td><div>a cool new app</div></td></tr><tr><td style="font-weight:bold;vertical-align:top;">generator</td><td style="vertical-align:top;">:</td><td><div>Web2py Web Framework</div></td></tr><tr><td style="font-weight:bold;vertical-align:top;">keywords</td><td style="vertical-align:top;">:</td><td><div>web2py, python, framework</div></td></tr></table></div></td></tr><tr><td style="font-weight:bold;vertical-align:top;">models_to_run</td><td style="vertical-align:top;">:</td><td><div><table><tr><td><div>^\\w+\\.py$</div></td></tr><tr><td><div>^default/\\w+\\.py$</div></td></tr><tr><td><div>^default/index/\\w+\\.py$</div></td></tr></table></div></td></tr><tr><td style="font-weight:bold;vertical-align:top;">postprocessing</td><td style="vertical-align:top;">:</td><td><div><table></table></div></td></tr><tr><td style="font-weight:bold;vertical-align:top;">session_client</td><td style="vertical-align:top;">:</td><td><div>127.0.0.1</div></td></tr><tr><td style="font-weight:bold;vertical-align:top;">session_cookie_compression_level</td><td style="vertical-align:top;">:</td><td><div>None</div></td></tr><tr><td style="font-weight:bold;vertical-align:top;">session_cookie_expires</td><td style="vertical-align:top;">:</td><td><div>None</div></td></tr><tr><td style="font-weight:bold;vertical-align:top;">session_cookie_key</td><td style="vertical-align:top;">:</td><td><div>None</div></td></tr><tr><td style="font-weight:bold;vertical-align:top;">session_data_name</td><td style="vertical-align:top;">:</td><td><div>session_data_cifra</div></td></tr><tr><td style="font-weight:bold;vertical-align:top;">session_file</td><td style="vertical-align:top;">:</td><td><div>&lt;open file &#x27;/Users/JoaoBtte/Documents/python/Hello/applications/Cifra/sessions/127.0.0.1-d107fe7e-5827-43f8-8fac-0f99228e14f9&#x27;, mode &#x27;rb+&#x27; at 0x108f585d0&gt;</div></td></tr><tr><td style="font-weight:bold;vertical-align:top;">session_filename</td><td style="vertical-align:top;">:</td><td><div>/Users/JoaoBtte/Documents/python/Hello/applications/Cifra/sessions/127.0.0.1-d107fe7e-5827-43f8-8fac-0f99228e14f9</div></td></tr><tr><td style="font-weight:bold;vertical-align:top;">session_hash</td><td style="vertical-align:top;">:</td><td><div>41dfabf3efed84fee1b5e1fc9c1ce593</div></td></tr><tr><td style="font-weight:bold;vertical-align:top;">session_id</td><td style="vertical-align:top;">:</td><td><div>127.0.0.1-d107fe7e-5827-43f8-8fac-0f99228e14f9</div></td></tr><tr><td style="font-weight:bold;vertical-align:top;">session_id_name</td><td style="vertical-align:top;">:</td><td><div>session_id_cifra</div></td></tr><tr><td style="font-weight:bold;vertical-align:top;">session_locked</td><td style="vertical-align:top;">:</td><td><div>True</div></td></tr><tr><td style="font-weight:bold;vertical-align:top;">session_masterapp</td><td style="vertical-align:top;">:</td><td><div>Cifra</div></td></tr><tr><td style="font-weight:bold;vertical-align:top;">session_new</td><td style="vertical-align:top;">:</td><td><div>False</div></td></tr><tr><td style="font-weight:bold;vertical-align:top;">session_storage_type</td><td style="vertical-align:top;">:</td><td><div>file</div></td></tr><tr><td style="font-weight:bold;vertical-align:top;">status</td><td style="vertical-align:top;">:</td><td><div>200</div></td></tr><tr><td style="font-weight:bold;vertical-align:top;">subtitle</td><td style="vertical-align:top;">:</td><td><div></div></td></tr><tr><td style="font-weight:bold;vertical-align:top;">title</td><td style="vertical-align:top;">:</td><td><div>Cifra</div></td></tr><tr><td style="font-weight:bold;vertical-align:top;">view</td><td style="vertical-align:top;">:</td><td><div>default/index.html</div></td></tr></table></div>'
tRp240
sS'locals'
p241
(dp242
S'parser'
p243
S'<bs4.builder._htmlparser.BeautifulSoupHTMLParser instance>'
p244
sS'e'
S'HTMLParseError()'
p245
sS'self'
p246
S'<bs4.builder._htmlparser.HTMLParserTreeBuilder object>'
p247
sg50
S'()'
p248
sS'kwargs'
p249
S'{}'
p250
sS'markup'
p251
S"u'\\n\\n\\n\\n<!DOCTYPE html>\\n\\n<!--[if IE]><![endi...-- P\\xe1gina gerada em 19/09/2013 14:17:34 -->\\n'"
p252
sssS'traceback'
p253
S'Traceback (most recent call last):\n  File "/Users/JoaoBtte/Documents/python/Hello/gluon/restricted.py", line 217, in restricted\n    exec ccode in environment\n  File "/Users/JoaoBtte/Documents/python/Hello/applications/Cifra/controllers/default.py", line 65, in <module>\n  File "/Users/JoaoBtte/Documents/python/Hello/gluon/globals.py", line 378, in <lambda>\n    self._caller = lambda f: f()\n  File "/Users/JoaoBtte/Documents/python/Hello/applications/Cifra/controllers/default.py", line 11, in index\n    cifra = cifra_club.get_song(form.vars.url)\n  File "applications/Cifra/modules/cifra_club.py", line 36, in get_song\n    soup = BeautifulSoup(page)\n  File "/Library/Python/2.7/site-packages/bs4/__init__.py", line 183, in __init__\n    self._feed()\n  File "/Library/Python/2.7/site-packages/bs4/__init__.py", line 197, in _feed\n    self.builder.feed(self.markup)\n  File "/Library/Python/2.7/site-packages/bs4/builder/_htmlparser.py", line 156, in feed\n    raise e\nHTMLParseError: bad end tag: u"</SC\'+\'RIPT>", at line 17, column 166\n'
p254
s.