(dp1
S'output'
p2
S"<type 'exceptions.IOError'> [Errno 2] No such file or directory: '/Users/JoaoBtte/Documents/python/Hello/gluon/contrib/pyfpdf/tutorial/logo_pb.png'"
p3
sS'layer'
p4
S'/Users/JoaoBtte/Documents/python/Hello/applications/Cifra/controllers/default.py'
p5
sS'code'
p6
S'def user():\n    return dict(form=auth())\n\ndef index():\n    import cifra_club\n\n    form = SQLFORM.factory(Field(\'url\',\n                                 label=T(\'Insert the URL \'),\n                                 requires=IS_MATCH(\'http://www.cifraclub.com.br/\', error_message=\'Desculpa, por enquanto, so Cifra Club\')))\n\n    if form.process().accepted:\n\n        cifra = cifra_club.get_song(form.vars.url)\n        ## cifra[0] = name; cifra[1] = nome_musica; cifra[2] = letra\n        session.name = cifra[0].title().split("-")[0]\n        session.banda = cifra[0].split("-")[1]\n        session.nome_musica = cifra[1]\n        session.letra = cifra[2].strip()\n        redirect(URL(\'cifra\'))\n    return dict(form=form)\n\n\ndef cifra():\n    response.title = session.name\n    response.subtitles = session.banda\n    return dict()\n\ndef evernote():\n    import evernote_song\n    evernote_song.evernote_song(session.name, session.banda, session.letra)\n    response.flash=\'Gravado no Evernote!\'\n    return ("")\n\ndef to_pdf():\n    from gluon.contrib.pyfpdf import FPDF, HTMLMixin\n\n    # create a custom class with the required functionalities\n    class MyFPDF(FPDF, HTMLMixin):\n        def header(self): \n            "hook to draw custom page header (logo and title)"\n            logo=os.path.join(request.env.web2py_path,"gluon","contrib","pyfpdf","tutorial","logo_pb.png")\n            self.image(logo,10,8,33)\n            self.set_font(\'Arial\',\'B\',15)\n            self.cell(65) # padding\n            self.cell(60,10,response.title,1,0,\'C\')\n            self.ln(20)\n\n        def footer(self):\n            "hook to draw custom page footer (printing page numbers)"\n            self.set_y(-15)\n            self.set_font(\'Arial\',\'I\',8)\n            txt = \'Page %s of %s\' % (self.page_no(), self.alias_nb_pages())\n            self.cell(0,10,txt,0,0,\'C\')\n\n    response.title = session.name\n    pdf=MyFPDF()\n    # create a page and serialize/render HTML objects\n    pdf.add_page()\n    pdf.write_html(str(XML(session.letra, sanitize=False)))\n\n    # prepare PDF to download:\n    response.headers[\'Content-Type\']=\'application/pdf\'\n    return pdf.output(dest=\'S\')\n    #pdf.make_pdf(session.name, nome_arquivo, session.letra)\n    #response.flash=\'PDF Gravado!\'\n    #return ("")\n\nresponse._vars=response._caller(to_pdf)\n'
p7
sS'snapshot'
p8
(dp9
S'exception'
p10
(dp11
S'__getslice__'
p12
S"<method-wrapper '__getslice__' of exceptions.IOError object>"
p13
sS'__str__'
p14
S"<method-wrapper '__str__' of exceptions.IOError object>"
p15
sS'__reduce__'
p16
S'<built-in method __reduce__ of exceptions.IOError object>'
p17
sS'__dict__'
p18
S'{}'
p19
sS'__sizeof__'
p20
S'<built-in method __sizeof__ of exceptions.IOError object>'
p21
sS'__init__'
p22
S"<method-wrapper '__init__' of exceptions.IOError object>"
p23
sS'__setattr__'
p24
S"<method-wrapper '__setattr__' of exceptions.IOError object>"
p25
sS'__reduce_ex__'
p26
S'<built-in method __reduce_ex__ of exceptions.IOError object>'
p27
sS'__new__'
p28
S'<built-in method __new__ of type object>'
p29
sS'errno'
p30
S'2'
sS'__format__'
p31
S'<built-in method __format__ of exceptions.IOError object>'
p32
sS'__class__'
p33
S"<type 'exceptions.IOError'>"
p34
sS'filename'
p35
S"'/Users/JoaoBtte/Documents/python/Hello/gluon/contrib/pyfpdf/tutorial/logo_pb.png'"
p36
sS'__doc__'
p37
S"'I/O operation failed.'"
p38
sS'__getitem__'
p39
S"<method-wrapper '__getitem__' of exceptions.IOError object>"
p40
sS'__setstate__'
p41
S'<built-in method __setstate__ of exceptions.IOError object>'
p42
sS'__getattribute__'
p43
S"<method-wrapper '__getattribute__' of exceptions.IOError object>"
p44
sS'args'
p45
S"(2, 'No such file or directory')"
p46
sS'__subclasshook__'
p47
S'<built-in method __subclasshook__ of type object>'
p48
sS'__unicode__'
p49
S'<built-in method __unicode__ of exceptions.IOError object>'
p50
sS'strerror'
p51
S"'No such file or directory'"
p52
sS'__delattr__'
p53
S"<method-wrapper '__delattr__' of exceptions.IOError object>"
p54
sS'__repr__'
p55
S"<method-wrapper '__repr__' of exceptions.IOError object>"
p56
sS'__hash__'
p57
S"<method-wrapper '__hash__' of exceptions.IOError object>"
p58
ssS'evalue'
p59
S"[Errno 2] No such file or directory: '/Users/JoaoBtte/Documents/python/Hello/gluon/contrib/pyfpdf/tutorial/logo_pb.png'"
p60
sS'request'
p61
cgluon.html
XML_unpickle
p62
(S'sS`\x00\x00<div><table><tr><td style="font-weight:bold;vertical-align:top;">ajax</td><td style="vertical-align:top;">:</td><td><div>True</div></td></tr><tr><td style="font-weight:bold;vertical-align:top;">application</td><td style="vertical-align:top;">:</td><td><div>Cifra</div></td></tr><tr><td style="font-weight:bold;vertical-align:top;">args</td><td style="vertical-align:top;">:</td><td><div><table></table></div></td></tr><tr><td style="font-weight:bold;vertical-align:top;">cid</td><td style="vertical-align:top;">:</td><td><div>None</div></td></tr><tr><td style="font-weight:bold;vertical-align:top;">client</td><td style="vertical-align:top;">:</td><td><div>127.0.0.1</div></td></tr><tr><td style="font-weight:bold;vertical-align:top;">controller</td><td style="vertical-align:top;">:</td><td><div>default</div></td></tr><tr><td style="font-weight:bold;vertical-align:top;">cookies</td><td style="vertical-align:top;">:</td><td><div><table><tr><td style="font-weight:bold;vertical-align:top;">session_id_admin</td><td style="vertical-align:top;">:</td><td><div>127.0.0.1-4e7e74af-8bad-4eb8-b2c8-661b2c396df1<table><tr><td style="font-weight:bold;vertical-align:top;">comment</td><td style="vertical-align:top;">:</td><td><div></div></td></tr><tr><td style="font-weight:bold;vertical-align:top;">domain</td><td style="vertical-align:top;">:</td><td><div></div></td></tr><tr><td style="font-weight:bold;vertical-align:top;">expires</td><td style="vertical-align:top;">:</td><td><div></div></td></tr><tr><td style="font-weight:bold;vertical-align:top;">httponly</td><td style="vertical-align:top;">:</td><td><div></div></td></tr><tr><td style="font-weight:bold;vertical-align:top;">max-age</td><td style="vertical-align:top;">:</td><td><div></div></td></tr><tr><td style="font-weight:bold;vertical-align:top;">path</td><td style="vertical-align:top;">:</td><td><div></div></td></tr><tr><td style="font-weight:bold;vertical-align:top;">secure</td><td style="vertical-align:top;">:</td><td><div></div></td></tr><tr><td style="font-weight:bold;vertical-align:top;">version</td><td style="vertical-align:top;">:</td><td><div></div></td></tr></table></div></td></tr><tr><td style="font-weight:bold;vertical-align:top;">session_id_cifra</td><td style="vertical-align:top;">:</td><td><div>127.0.0.1-3d4c39b0-2fb0-443f-bece-4021012e88f2<table><tr><td style="font-weight:bold;vertical-align:top;">comment</td><td style="vertical-align:top;">:</td><td><div></div></td></tr><tr><td style="font-weight:bold;vertical-align:top;">domain</td><td style="vertical-align:top;">:</td><td><div></div></td></tr><tr><td style="font-weight:bold;vertical-align:top;">expires</td><td style="vertical-align:top;">:</td><td><div></div></td></tr><tr><td style="font-weight:bold;vertical-align:top;">httponly</td><td style="vertical-align:top;">:</td><td><div></div></td></tr><tr><td style="font-weight:bold;vertical-align:top;">max-age</td><td style="vertical-align:top;">:</td><td><div></div></td></tr><tr><td style="font-weight:bold;vertical-align:top;">path</td><td style="vertical-align:top;">:</td><td><div></div></td></tr><tr><td style="font-weight:bold;vertical-align:top;">secure</td><td style="vertical-align:top;">:</td><td><div></div></td></tr><tr><td style="font-weight:bold;vertical-align:top;">version</td><td style="vertical-align:top;">:</td><td><div></div></td></tr></table></div></td></tr><tr><td style="font-weight:bold;vertical-align:top;">session_id_welcome</td><td style="vertical-align:top;">:</td><td><div>127.0.0.1-c5e0b6c2-cd21-42ba-9129-66d388ee6e7e<table><tr><td style="font-weight:bold;vertical-align:top;">comment</td><td style="vertical-align:top;">:</td><td><div></div></td></tr><tr><td style="font-weight:bold;vertical-align:top;">domain</td><td style="vertical-align:top;">:</td><td><div></div></td></tr><tr><td style="font-weight:bold;vertical-align:top;">expires</td><td style="vertical-align:top;">:</td><td><div></div></td></tr><tr><td style="font-weight:bold;vertical-align:top;">httponly</td><td style="vertical-align:top;">:</td><td><div></div></td></tr><tr><td style="font-weight:bold;vertical-align:top;">max-age</td><td style="vertical-align:top;">:</td><td><div></div></td></tr><tr><td style="font-weight:bold;vertical-align:top;">path</td><td style="vertical-align:top;">:</td><td><div></div></td></tr><tr><td style="font-weight:bold;vertical-align:top;">secure</td><td style="vertical-align:top;">:</td><td><div></div></td></tr><tr><td style="font-weight:bold;vertical-align:top;">version</td><td style="vertical-align:top;">:</td><td><div></div></td></tr></table></div></td></tr></table></div></td></tr><tr><td style="font-weight:bold;vertical-align:top;">env</td><td style="vertical-align:top;">:</td><td><div><table><tr><td style="font-weight:bold;vertical-align:top;">CONTENT_LENGTH</td><td style="vertical-align:top;">:</td><td><div>0</div></td></tr><tr><td style="font-weight:bold;vertical-align:top;">HTTP_ACCEPT</td><td style="vertical-align:top;">:</td><td><div>*/*</div></td></tr><tr><td style="font-weight:bold;vertical-align:top;">HTTP_ACCEPT_ENCODING</td><td style="vertical-align:top;">:</td><td><div>gzip,deflate,sdch</div></td></tr><tr><td style="font-weight:bold;vertical-align:top;">HTTP_ACCEPT_LANGUAGE</td><td style="vertical-align:top;">:</td><td><div>pt-BR,pt;q=0.8,en-US;q=0.6,en;q=0.4</div></td></tr><tr><td style="font-weight:bold;vertical-align:top;">HTTP_CONNECTION</td><td style="vertical-align:top;">:</td><td><div>keep-alive</div></td></tr><tr><td style="font-weight:bold;vertical-align:top;">HTTP_CONTENT_LENGTH</td><td style="vertical-align:top;">:</td><td><div>0</div></td></tr><tr><td style="font-weight:bold;vertical-align:top;">HTTP_COOKIE</td><td style="vertical-align:top;">:</td><td><div>session_id_welcome=127.0.0.1-c5e0b6c2-cd21-42ba-9129-66d388ee6e7e; session_id_admin=127.0.0.1-4e7e74af-8bad-4eb8-b2c8-661b2c396df1; session_id_cifra=127.0.0.1-3d4c39b0-2fb0-443f-bece-4021012e88f2</div></td></tr><tr><td style="font-weight:bold;vertical-align:top;">HTTP_HOST</td><td style="vertical-align:top;">:</td><td><div>127.0.0.1:8000</div></td></tr><tr><td style="font-weight:bold;vertical-align:top;">HTTP_ORIGIN</td><td style="vertical-align:top;">:</td><td><div>http://127.0.0.1:8000</div></td></tr><tr><td style="font-weight:bold;vertical-align:top;">HTTP_REFERER</td><td style="vertical-align:top;">:</td><td><div>http://127.0.0.1:8000/Cifra/default/cifra</div></td></tr><tr><td style="font-weight:bold;vertical-align:top;">HTTP_USER_AGENT</td><td style="vertical-align:top;">:</td><td><div>Mozilla/5.0 (Macintosh; Intel Mac OS X 10_8_4) AppleWebKit/537.36 (KHTML, like Gecko) Chrome/29.0.1547.76 Safari/537.36</div></td></tr><tr><td style="font-weight:bold;vertical-align:top;">HTTP_X_REQUESTED_WITH</td><td style="vertical-align:top;">:</td><td><div>XMLHttpRequest</div></td></tr><tr><td style="font-weight:bold;vertical-align:top;">PATH_INFO</td><td style="vertical-align:top;">:</td><td><div>/Cifra/default/to_pdf</div></td></tr><tr><td style="font-weight:bold;vertical-align:top;">QUERY_STRING</td><td style="vertical-align:top;">:</td><td><div></div></td></tr><tr><td style="font-weight:bold;vertical-align:top;">REMOTE_ADDR</td><td style="vertical-align:top;">:</td><td><div>127.0.0.1</div></td></tr><tr><td style="font-weight:bold;vertical-align:top;">REMOTE_PORT</td><td style="vertical-align:top;">:</td><td><div>58589</div></td></tr><tr><td style="font-weight:bold;vertical-align:top;">REQUEST_METHOD</td><td style="vertical-align:top;">:</td><td><div>POST</div></td></tr><tr><td style="font-weight:bold;vertical-align:top;">SCRIPT_NAME</td><td style="vertical-align:top;">:</td><td><div></div></td></tr><tr><td style="font-weight:bold;vertical-align:top;">SERVER_NAME</td><td style="vertical-align:top;">:</td><td><div>MacBook-Pro-de-Joao.local</div></td></tr><tr><td style="font-weight:bold;vertical-align:top;">SERVER_PORT</td><td style="vertical-align:top;">:</td><td><div>8000</div></td></tr><tr><td style="font-weight:bold;vertical-align:top;">SERVER_PROTOCOL</td><td style="vertical-align:top;">:</td><td><div>HTTP/1.1</div></td></tr><tr><td style="font-weight:bold;vertical-align:top;">SERVER_SOFTWARE</td><td style="vertical-align:top;">:</td><td><div>Rocket 1.2.6</div></td></tr><tr><td style="font-weight:bold;vertical-align:top;">app_folders</td><td style="vertical-align:top;">:</td><td><div>set([&#x27;/Users/JoaoBtte/Documents/python/Hello/applications/admin/&#x27;, &#x27;/Users/JoaoBtte/Documents/python/Hello/applications/welcome/&#x27;, &#x27;/Users/JoaoBtte/Documents/python/Hello/applications/Cifra/&#x27;])</div></td></tr><tr><td style="font-weight:bold;vertical-align:top;">applications_parent</td><td style="vertical-align:top;">:</td><td><div>/Users/JoaoBtte/Documents/python/Hello</div></td></tr><tr><td style="font-weight:bold;vertical-align:top;">cmd_args</td><td style="vertical-align:top;">:</td><td><div><table></table></div></td></tr><tr><td style="font-weight:bold;vertical-align:top;">cmd_options</td><td style="vertical-align:top;">:</td><td><div>&lt;Values at 0x1039e8a28: {&#x27;verbose&#x27;: False, &#x27;ip&#x27;: &#x27;127.0.0.1&#x27;, &#x27;debuglevel&#x27;: 30, &#x27;with_scheduler&#x27;: False, &#x27;ips&#x27;: [&#x27;fe80::22c9:d0ff:fed9:645f%en1&#x27;, &#x27;192.168.1.4&#x27;], &#x27;shutdown_timeout&#x27;: 5, &#x27;taskbar&#x27;: False, &#x27;with_coverage&#x27;: False, &#x27;port&#x27;: 8000, &#x27;maxthreads&#x27;: None, &#x27;softcron&#x27;: False, &#x27;server_name&#x27;: &#x27;MacBook-Pro-de-Joao.local&#x27;, &#x27;bpython&#x27;: False, &#x27;nogui&#x27;: False, &#x27;pid_filename&#x27;: &#x27;httpserver.pid&#x27;, &#x27;extcron&#x27;: False, &#x27;runcron&#x27;: False, &#x27;run_system_tests&#x27;: False, &#x27;test&#x27;: None, &#x27;folder&#x27;: &#x27;/Users/JoaoBtte/Documents/python/Hello&#x27;, &#x27;config&#x27;: &#x27;&#x27;, &#x27;minthreads&#x27;: None, &#x27;winservice&#x27;: &#x27;&#x27;, &#x27;shell&#x27;: None, &#x27;run&#x27;: &#x27;&#x27;, &#x27;log_filename&#x27;: &#x27;httpserver.log&#x27;, &#x27;profiler_dir&#x27;: None, &#x27;args&#x27;: [&#x27;&#x27;], &#x27;socket_timeout&#x27;: 5, &#x27;ssl_ca_certificate&#x27;: None, &#x27;scheduler&#x27;: None, &#x27;interfaces&#x27;: None, &#x27;ssl_private_key&#x27;: &#x27;&#x27;, &#x27;scheduler_groups&#x27;: None, &#x27;password&#x27;: &#x27;&lt;ask&gt;&#x27;, &#x27;request_queue_size&#x27;: 5, &#x27;ssl_certificate&#x27;: &#x27;&#x27;, &#x27;cronjob&#x27;: False, &#x27;numthreads&#x27;: None, &#x27;quiet&#x27;: False, &#x27;import_models&#x27;: False, &#x27;timeout&#x27;: 10, &#x27;plain&#x27;: False, &#x27;nobanner&#x27;: False}&gt;</div></td></tr><tr><td style="font-weight:bold;vertical-align:top;">content_length</td><td style="vertical-align:top;">:</td><td><div>0</div></td></tr><tr><td style="font-weight:bold;vertical-align:top;">db_sessions</td><td style="vertical-align:top;">:</td><td><div>set([])</div></td></tr><tr><td style="font-weight:bold;vertical-align:top;">debugging</td><td style="vertical-align:top;">:</td><td><div>True</div></td></tr><tr><td style="font-weight:bold;vertical-align:top;">gluon_parent</td><td style="vertical-align:top;">:</td><td><div>/Users/JoaoBtte/Documents/python/Hello</div></td></tr><tr><td style="font-weight:bold;vertical-align:top;">http_accept</td><td style="vertical-align:top;">:</td><td><div>*/*</div></td></tr><tr><td style="font-weight:bold;vertical-align:top;">http_accept_encoding</td><td style="vertical-align:top;">:</td><td><div>gzip,deflate,sdch</div></td></tr><tr><td style="font-weight:bold;vertical-align:top;">http_accept_language</td><td style="vertical-align:top;">:</td><td><div>pt-BR,pt;q=0.8,en-US;q=0.6,en;q=0.4</div></td></tr><tr><td style="font-weight:bold;vertical-align:top;">http_connection</td><td style="vertical-align:top;">:</td><td><div>keep-alive</div></td></tr><tr><td style="font-weight:bold;vertical-align:top;">http_content_length</td><td style="vertical-align:top;">:</td><td><div>0</div></td></tr><tr><td style="font-weight:bold;vertical-align:top;">http_cookie</td><td style="vertical-align:top;">:</td><td><div>session_id_welcome=127.0.0.1-c5e0b6c2-cd21-42ba-9129-66d388ee6e7e; session_id_admin=127.0.0.1-4e7e74af-8bad-4eb8-b2c8-661b2c396df1; session_id_cifra=127.0.0.1-3d4c39b0-2fb0-443f-bece-4021012e88f2</div></td></tr><tr><td style="font-weight:bold;vertical-align:top;">http_host</td><td style="vertical-align:top;">:</td><td><div>127.0.0.1:8000</div></td></tr><tr><td style="font-weight:bold;vertical-align:top;">http_origin</td><td style="vertical-align:top;">:</td><td><div>http://127.0.0.1:8000</div></td></tr><tr><td style="font-weight:bold;vertical-align:top;">http_referer</td><td style="vertical-align:top;">:</td><td><div>http://127.0.0.1:8000/Cifra/default/cifra</div></td></tr><tr><td style="font-weight:bold;vertical-align:top;">http_user_agent</td><td style="vertical-align:top;">:</td><td><div>Mozilla/5.0 (Macintosh; Intel Mac OS X 10_8_4) AppleWebKit/537.36 (KHTML, like Gecko) Chrome/29.0.1547.76 Safari/537.36</div></td></tr><tr><td style="font-weight:bold;vertical-align:top;">http_x_requested_with</td><td style="vertical-align:top;">:</td><td><div>XMLHttpRequest</div></td></tr><tr><td style="font-weight:bold;vertical-align:top;">is_jython</td><td style="vertical-align:top;">:</td><td><div>False</div></td></tr><tr><td style="font-weight:bold;vertical-align:top;">is_pypy</td><td style="vertical-align:top;">:</td><td><div>False</div></td></tr><tr><td style="font-weight:bold;vertical-align:top;">is_source</td><td style="vertical-align:top;">:</td><td><div>True</div></td></tr><tr><td style="font-weight:bold;vertical-align:top;">local_hosts</td><td style="vertical-align:top;">:</td><td><div><table><tr><td><div>fe80::22c9:d0ff:fed9:645f%en1</div></td></tr><tr><td><div>::ffff:127.0.0.1</div></td></tr><tr><td><div>::1</div></td></tr><tr><td><div>192.168.1.4</div></td></tr><tr><td><div>MacBook-Pro-de-Joao.local</div></td></tr><tr><td><div>127.0.0.1</div></td></tr></table></div></td></tr><tr><td style="font-weight:bold;vertical-align:top;">path_info</td><td style="vertical-align:top;">:</td><td><div>/Cifra/default/to_pdf</div></td></tr><tr><td style="font-weight:bold;vertical-align:top;">query_string</td><td style="vertical-align:top;">:</td><td><div></div></td></tr><tr><td style="font-weight:bold;vertical-align:top;">remote_addr</td><td style="vertical-align:top;">:</td><td><div>127.0.0.1</div></td></tr><tr><td style="font-weight:bold;vertical-align:top;">remote_port</td><td style="vertical-align:top;">:</td><td><div>58589</div></td></tr><tr><td style="font-weight:bold;vertical-align:top;">request_method</td><td style="vertical-align:top;">:</td><td><div>POST</div></td></tr><tr><td style="font-weight:bold;vertical-align:top;">request_uri</td><td style="vertical-align:top;">:</td><td><div>/Cifra/default/to_pdf</div></td></tr><tr><td style="font-weight:bold;vertical-align:top;">script_name</td><td style="vertical-align:top;">:</td><td><div></div></td></tr><tr><td style="font-weight:bold;vertical-align:top;">server_name</td><td style="vertical-align:top;">:</td><td><div>MacBook-Pro-de-Joao.local</div></td></tr><tr><td style="font-weight:bold;vertical-align:top;">server_port</td><td style="vertical-align:top;">:</td><td><div>8000</div></td></tr><tr><td style="font-weight:bold;vertical-align:top;">server_protocol</td><td style="vertical-align:top;">:</td><td><div>HTTP/1.1</div></td></tr><tr><td style="font-weight:bold;vertical-align:top;">server_software</td><td style="vertical-align:top;">:</td><td><div>Rocket 1.2.6</div></td></tr><tr><td style="font-weight:bold;vertical-align:top;">web2py_path</td><td style="vertical-align:top;">:</td><td><div>/Users/JoaoBtte/Documents/python/Hello</div></td></tr><tr><td style="font-weight:bold;vertical-align:top;">web2py_version</td><td style="vertical-align:top;">:</td><td><div>2.6.2-stable+timestamp.2013.09.13.22.53.04</div></td></tr><tr><td style="font-weight:bold;vertical-align:top;">wsgi.errors</td><td style="vertical-align:top;">:</td><td><div>&lt;open file &#x27;&lt;stderr&gt;&#x27;, mode &#x27;w&#x27; at 0x102e93270&gt;</div></td></tr><tr><td style="font-weight:bold;vertical-align:top;">wsgi.file_wrapper</td><td style="vertical-align:top;">:</td><td><div>&lt;class wsgiref.util.FileWrapper at 0x103e1e328&gt;</div></td></tr><tr><td style="font-weight:bold;vertical-align:top;">wsgi.input</td><td style="vertical-align:top;">:</td><td><div>&lt;socket._fileobject object at 0x1087945d0&gt;</div></td></tr><tr><td style="font-weight:bold;vertical-align:top;">wsgi.multiprocess</td><td style="vertical-align:top;">:</td><td><div>False</div></td></tr><tr><td style="font-weight:bold;vertical-align:top;">wsgi.multithread</td><td style="vertical-align:top;">:</td><td><div>True</div></td></tr><tr><td style="font-weight:bold;vertical-align:top;">wsgi.run_once</td><td style="vertical-align:top;">:</td><td><div>False</div></td></tr><tr><td style="font-weight:bold;vertical-align:top;">wsgi.url_scheme</td><td style="vertical-align:top;">:</td><td><div>http</div></td></tr><tr><td style="font-weight:bold;vertical-align:top;">wsgi.version</td><td style="vertical-align:top;">:</td><td><div><table><tr><td><div>1</div></td></tr><tr><td><div>0</div></td></tr></table></div></td></tr><tr><td style="font-weight:bold;vertical-align:top;">wsgi_errors</td><td style="vertical-align:top;">:</td><td><div>&lt;open file &#x27;&lt;stderr&gt;&#x27;, mode &#x27;w&#x27; at 0x102e93270&gt;</div></td></tr><tr><td style="font-weight:bold;vertical-align:top;">wsgi_file_wrapper</td><td style="vertical-align:top;">:</td><td><div>&lt;class wsgiref.util.FileWrapper at 0x103e1e328&gt;</div></td></tr><tr><td style="font-weight:bold;vertical-align:top;">wsgi_input</td><td style="vertical-align:top;">:</td><td><div>&lt;socket._fileobject object at 0x1087945d0&gt;</div></td></tr><tr><td style="font-weight:bold;vertical-align:top;">wsgi_multiprocess</td><td style="vertical-align:top;">:</td><td><div>False</div></td></tr><tr><td style="font-weight:bold;vertical-align:top;">wsgi_multithread</td><td style="vertical-align:top;">:</td><td><div>True</div></td></tr><tr><td style="font-weight:bold;vertical-align:top;">wsgi_run_once</td><td style="vertical-align:top;">:</td><td><div>False</div></td></tr><tr><td style="font-weight:bold;vertical-align:top;">wsgi_url_scheme</td><td style="vertical-align:top;">:</td><td><div>http</div></td></tr><tr><td style="font-weight:bold;vertical-align:top;">wsgi_version</td><td style="vertical-align:top;">:</td><td><div><table><tr><td><div>1</div></td></tr><tr><td><div>0</div></td></tr></table></div></td></tr></table></div></td></tr><tr><td style="font-weight:bold;vertical-align:top;">extension</td><td style="vertical-align:top;">:</td><td><div>html</div></td></tr><tr><td style="font-weight:bold;vertical-align:top;">folder</td><td style="vertical-align:top;">:</td><td><div>/Users/JoaoBtte/Documents/python/Hello/applications/Cifra/</div></td></tr><tr><td style="font-weight:bold;vertical-align:top;">function</td><td style="vertical-align:top;">:</td><td><div>to_pdf</div></td></tr><tr><td style="font-weight:bold;vertical-align:top;">global_settings</td><td style="vertical-align:top;">:</td><td><div><table><tr><td style="font-weight:bold;vertical-align:top;">app_folders</td><td style="vertical-align:top;">:</td><td><div>set([&#x27;/Users/JoaoBtte/Documents/python/Hello/applications/admin/&#x27;, &#x27;/Users/JoaoBtte/Documents/python/Hello/applications/welcome/&#x27;, &#x27;/Users/JoaoBtte/Documents/python/Hello/applications/Cifra/&#x27;])</div></td></tr><tr><td style="font-weight:bold;vertical-align:top;">applications_parent</td><td style="vertical-align:top;">:</td><td><div>/Users/JoaoBtte/Documents/python/Hello</div></td></tr><tr><td style="font-weight:bold;vertical-align:top;">cmd_args</td><td style="vertical-align:top;">:</td><td><div><table></table></div></td></tr><tr><td style="font-weight:bold;vertical-align:top;">cmd_options</td><td style="vertical-align:top;">:</td><td><div>&lt;Values at 0x1039e8a28: {&#x27;verbose&#x27;: False, &#x27;ip&#x27;: &#x27;127.0.0.1&#x27;, &#x27;debuglevel&#x27;: 30, &#x27;with_scheduler&#x27;: False, &#x27;ips&#x27;: [&#x27;fe80::22c9:d0ff:fed9:645f%en1&#x27;, &#x27;192.168.1.4&#x27;], &#x27;shutdown_timeout&#x27;: 5, &#x27;taskbar&#x27;: False, &#x27;with_coverage&#x27;: False, &#x27;port&#x27;: 8000, &#x27;maxthreads&#x27;: None, &#x27;softcron&#x27;: False, &#x27;server_name&#x27;: &#x27;MacBook-Pro-de-Joao.local&#x27;, &#x27;bpython&#x27;: False, &#x27;nogui&#x27;: False, &#x27;pid_filename&#x27;: &#x27;httpserver.pid&#x27;, &#x27;extcron&#x27;: False, &#x27;runcron&#x27;: False, &#x27;run_system_tests&#x27;: False, &#x27;test&#x27;: None, &#x27;folder&#x27;: &#x27;/Users/JoaoBtte/Documents/python/Hello&#x27;, &#x27;config&#x27;: &#x27;&#x27;, &#x27;minthreads&#x27;: None, &#x27;winservice&#x27;: &#x27;&#x27;, &#x27;shell&#x27;: None, &#x27;run&#x27;: &#x27;&#x27;, &#x27;log_filename&#x27;: &#x27;httpserver.log&#x27;, &#x27;profiler_dir&#x27;: None, &#x27;args&#x27;: [&#x27;&#x27;], &#x27;socket_timeout&#x27;: 5, &#x27;ssl_ca_certificate&#x27;: None, &#x27;scheduler&#x27;: None, &#x27;interfaces&#x27;: None, &#x27;ssl_private_key&#x27;: &#x27;&#x27;, &#x27;scheduler_groups&#x27;: None, &#x27;password&#x27;: &#x27;&lt;ask&gt;&#x27;, &#x27;request_queue_size&#x27;: 5, &#x27;ssl_certificate&#x27;: &#x27;&#x27;, &#x27;cronjob&#x27;: False, &#x27;numthreads&#x27;: None, &#x27;quiet&#x27;: False, &#x27;import_models&#x27;: False, &#x27;timeout&#x27;: 10, &#x27;plain&#x27;: False, &#x27;nobanner&#x27;: False}&gt;</div></td></tr><tr><td style="font-weight:bold;vertical-align:top;">db_sessions</td><td style="vertical-align:top;">:</td><td><div>set([])</div></td></tr><tr><td style="font-weight:bold;vertical-align:top;">debugging</td><td style="vertical-align:top;">:</td><td><div>True</div></td></tr><tr><td style="font-weight:bold;vertical-align:top;">gluon_parent</td><td style="vertical-align:top;">:</td><td><div>/Users/JoaoBtte/Documents/python/Hello</div></td></tr><tr><td style="font-weight:bold;vertical-align:top;">is_jython</td><td style="vertical-align:top;">:</td><td><div>False</div></td></tr><tr><td style="font-weight:bold;vertical-align:top;">is_pypy</td><td style="vertical-align:top;">:</td><td><div>False</div></td></tr><tr><td style="font-weight:bold;vertical-align:top;">is_source</td><td style="vertical-align:top;">:</td><td><div>True</div></td></tr><tr><td style="font-weight:bold;vertical-align:top;">local_hosts</td><td style="vertical-align:top;">:</td><td><div><table><tr><td><div>fe80::22c9:d0ff:fed9:645f%en1</div></td></tr><tr><td><div>::ffff:127.0.0.1</div></td></tr><tr><td><div>::1</div></td></tr><tr><td><div>192.168.1.4</div></td></tr><tr><td><div>MacBook-Pro-de-Joao.local</div></td></tr><tr><td><div>127.0.0.1</div></td></tr></table></div></td></tr><tr><td style="font-weight:bold;vertical-align:top;">web2py_version</td><td style="vertical-align:top;">:</td><td><div>2.6.2-stable+timestamp.2013.09.13.22.53.04</div></td></tr></table></div></td></tr><tr><td style="font-weight:bold;vertical-align:top;">is_https</td><td style="vertical-align:top;">:</td><td><div>False</div></td></tr><tr><td style="font-weight:bold;vertical-align:top;">is_local</td><td style="vertical-align:top;">:</td><td><div>True</div></td></tr><tr><td style="font-weight:bold;vertical-align:top;">is_restful</td><td style="vertical-align:top;">:</td><td><div>False</div></td></tr><tr><td style="font-weight:bold;vertical-align:top;">now</td><td style="vertical-align:top;">:</td><td><div>datetime.datetime(2013, 9, 23, 0, 16, 38, 234862)</div></td></tr><tr><td style="font-weight:bold;vertical-align:top;">raw_args</td><td style="vertical-align:top;">:</td><td><div></div></td></tr><tr><td style="font-weight:bold;vertical-align:top;">raw_extension</td><td style="vertical-align:top;">:</td><td><div>None</div></td></tr><tr><td style="font-weight:bold;vertical-align:top;">url</td><td style="vertical-align:top;">:</td><td><div>/Cifra/default/to_pdf</div></td></tr><tr><td style="font-weight:bold;vertical-align:top;">utcnow</td><td style="vertical-align:top;">:</td><td><div>datetime.datetime(2013, 9, 23, 3, 16, 38, 234875)</div></td></tr><tr><td style="font-weight:bold;vertical-align:top;">uuid</td><td style="vertical-align:top;">:</td><td><div>Cifra/127.0.0.1.2013-09-23.00-16-38.983f6722-14c9-4508-ac93-81f748e42ffd</div></td></tr><tr><td style="font-weight:bold;vertical-align:top;">wsgi</td><td style="vertical-align:top;">:</td><td><div>&lt;gluon.main.LazyWSGI object at 0x10bfb3e90&gt;</div></td></tr></table></div>'
tRp63
sS'frames'
p64
(lp65
(dp66
S'file'
p67
S'/Users/JoaoBtte/Documents/python/Hello/gluon/restricted.py'
p68
sS'dump'
p69
(dp70
S'environment'
p71
S"{'A': <class 'gluon.html.A'>, 'ANY_OF': <class 'gluon.validators.ANY_OF'>, 'Auth': <class 'gluon.tools.Auth'>, 'B': <class 'gluon.html.B'>, 'BEAUTIFY': <class 'gluon.html.BEAUTIFY'>, 'BODY': <class 'gluon.html.BODY'>, 'BR': <class 'gluon.html.BR'>, 'BUTTON': <class 'gluon.html.BUTTON'>, 'CAT': <class 'gluon.html.CAT'>, 'CENTER': <class 'gluon.html.CENTER'>, ...}"
p72
sS'ccode'
p73
S'<code object <module> at 0x1087a99b0, file "/Use...plications/Cifra/controllers/default.py", line 1>'
p74
ssS'lnum'
p75
I217
sS'lines'
p76
(dp77
I212
S'    try:'
p78
sI213
S'        if isinstance(code, types.CodeType):'
p79
sI214
S'            ccode = code'
p80
sI215
S'        else:'
p81
sI216
S'            ccode = compile2(code, layer)'
p82
sI217
S'        exec ccode in environment'
p83
sI218
S'    except HTTP:'
p84
sI219
S'        raise'
p85
sI220
S'    except RestrictedError:'
p86
sI221
S'        # do not encapsulate (obfuscate) the original RestrictedError'
p87
ssS'call'
p88
S'(code=\'def user():\\n    return dict(form=auth())\\n\\ndef in...rn ("")\\n\\nresponse._vars=response._caller(to_pdf)\\n\', environment={\'A\': <class \'gluon.html.A\'>, \'ANY_OF\': <class \'gluon.validators.ANY_OF\'>, \'Auth\': <class \'gluon.tools.Auth\'>, \'B\': <class \'gluon.html.B\'>, \'BEAUTIFY\': <class \'gluon.html.BEAUTIFY\'>, \'BODY\': <class \'gluon.html.BODY\'>, \'BR\': <class \'gluon.html.BR\'>, \'BUTTON\': <class \'gluon.html.BUTTON\'>, \'CAT\': <class \'gluon.html.CAT\'>, \'CENTER\': <class \'gluon.html.CENTER\'>, ...}, layer=\'/Users/JoaoBtte/Documents/python/Hello/applications/Cifra/controllers/default.py\')'
p89
sS'func'
p90
S'restricted'
p91
sa(dp92
g67
S'/Users/JoaoBtte/Documents/python/Hello/applications/Cifra/controllers/default.py'
p93
sg69
(dp94
sg75
I68
sg76
(dp95
I64
S'    #pdf.make_pdf(session.name, nome_arquivo, session.letra)'
p96
sI65
S"    #response.flash='PDF Gravado!'"
p97
sI66
S'    #return ("")'
p98
sI57
S'    # create a page and serialize/render HTML objects'
p99
sI58
S'    pdf.add_page()'
p100
sI59
S'    pdf.write_html(str(XML(session.letra, sanitize=False)))'
p101
sI60
S''
sI61
S'    # prepare PDF to download:'
p102
sI62
S"    response.headers['Content-Type']='application/pdf'"
p103
sI63
S"    return pdf.output(dest='S')"
p104
ssg88
S'()'
p105
sg90
S'<module>'
p106
sa(dp107
g67
S'/Users/JoaoBtte/Documents/python/Hello/gluon/globals.py'
p108
sg69
(dp109
S'self'
p110
S'undefined'
p111
sS'f'
S'<function to_pdf>'
p112
ssg75
I378
sg76
(dp113
I373
S'        self.menu = []             # used by the default view layout'
p114
sI374
S'        self.files = []            # used by web2py_ajax.html'
p115
sI375
S'        self.generic_patterns = []  # patterns to allow generic views'
p116
sI376
S"        self.delimiters = ('{{', '}}')"
p117
sI377
S'        self._vars = None'
p118
sI378
S'        self._caller = lambda f: f()'
p119
sI379
S'        self._view_environment = None'
p120
sI380
S'        self._custom_commit = None'
p121
sI381
S'        self._custom_rollback = None'
p122
sI382
S''
ssg88
S'(f=<function to_pdf>)'
p123
sg90
S'<lambda>'
p124
sa(dp125
g67
S'/Users/JoaoBtte/Documents/python/Hello/applications/Cifra/controllers/default.py'
p126
sg69
(dp127
S'pdf'
p128
S'<__restricted__.MyFPDF object>'
p129
sS'pdf.add_page'
p130
S'<bound method MyFPDF.add_page of <__restricted__.MyFPDF object>>'
p131
ssg75
I58
sg76
(dp132
I53
S"            self.cell(0,10,txt,0,0,'C')"
p133
sI54
S''
sI55
S'    response.title = session.name'
p134
sI56
S'    pdf=MyFPDF()'
p135
sI57
S'    # create a page and serialize/render HTML objects'
p136
sI58
S'    pdf.add_page()'
p137
sI59
S'    pdf.write_html(str(XML(session.letra, sanitize=False)))'
p138
sI60
S''
sI61
S'    # prepare PDF to download:'
p139
sI62
S"    response.headers['Content-Type']='application/pdf'"
p140
ssg88
S'()'
p141
sg90
S'to_pdf'
p142
sa(dp143
g67
S'/Users/JoaoBtte/Documents/python/Hello/gluon/contrib/fpdf/fpdf.py'
p144
sg69
(dp145
S'self.header'
p146
S'<bound method MyFPDF.header of <__restricted__.MyFPDF object>>'
p147
sS'self'
p148
S'<__restricted__.MyFPDF object>'
p149
ssg75
I288
sg76
(dp150
I288
S'        self.header()'
p151
sI289
S'        #Restore line width'
p152
sI290
S'        if(self.line_width!=lw):'
p153
sI291
S'            self.line_width=lw'
p154
sI292
S"            self._out(sprintf('%.2f w',lw*self.k))"
p155
sI283
S"        if(fc!='0 g'):"
p156
sI284
S'            self._out(fc)'
p157
sI285
S'        self.text_color=tc'
p158
sI286
S'        self.color_flag=cf'
p159
sI287
S'        #Page header'
p160
ssg88
S"(self=<__restricted__.MyFPDF object>, orientation='')"
p161
sg90
S'add_page'
p162
sa(dp163
g67
S'/Users/JoaoBtte/Documents/python/Hello/applications/Cifra/controllers/default.py'
p164
sg69
(dp165
S'self.image'
p166
S'<bound method MyFPDF.image of <__restricted__.MyFPDF object>>'
p167
sS'self'
p168
S'<__restricted__.MyFPDF object>'
p169
sS'logo'
p170
S"'/Users/JoaoBtte/Documents/python/Hello/gluon/contrib/pyfpdf/tutorial/logo_pb.png'"
p171
ssg75
I42
sg76
(dp172
I37
S'    # create a custom class with the required functionalities'
p173
sI38
S'    class MyFPDF(FPDF, HTMLMixin):'
p174
sI39
S'        def header(self):'
p175
sI40
S'            "hook to draw custom page header (logo and title)"'
p176
sI41
S'            logo=os.path.join(request.env.web2py_path,"gluon","contrib","pyfpdf","tutorial","logo_pb.png")'
p177
sI42
S'            self.image(logo,10,8,33)'
p178
sI43
S"            self.set_font('Arial','B',15)"
p179
sI44
S'            self.cell(65) # padding'
p180
sI45
S"            self.cell(60,10,response.title,1,0,'C')"
p181
sI46
S'            self.ln(20)'
p182
ssg88
S'(self=<__restricted__.MyFPDF object>)'
p183
sg90
S'header'
p184
sa(dp185
g67
S'/Users/JoaoBtte/Documents/python/Hello/gluon/contrib/fpdf/fpdf.py'
p186
sg69
(dp187
S'info'
p188
g111
sS'self'
p189
S'<__restricted__.MyFPDF object>'
p190
sS'self._parsepng'
p191
S'<bound method MyFPDF._parsepng of <__restricted__.MyFPDF object>>'
p192
sS'name'
p193
S"'/Users/JoaoBtte/Documents/python/Hello/gluon/contrib/pyfpdf/tutorial/logo_pb.png'"
p194
ssg75
I915
sg76
(dp195
I910
S'                type=substr(name,pos+1)'
p196
sI911
S'            type=type.lower()'
p197
sI912
S"            if(type=='jpg' or type=='jpeg'):"
p198
sI913
S'                info=self._parsejpg(name)'
p199
sI914
S"            elif(type=='png'):"
p200
sI915
S'                info=self._parsepng(name)'
p201
sI916
S'            else:'
p202
sI917
S'                #Allow for additional formats'
p203
sI918
S'                #maybe the image is not showing the correct extension,'
p204
sI919
S'                #but the header is OK,'
p205
ssg88
S"(self=<__restricted__.MyFPDF object>, name='/Users/JoaoBtte/Documents/python/Hello/gluon/contrib/pyfpdf/tutorial/logo_pb.png', x=10, y=8, w=33, h=0, type='png', link='')"
p206
sg90
S'image'
p207
sa(dp208
g67
S'/Users/JoaoBtte/Documents/python/Hello/gluon/contrib/fpdf/fpdf.py'
p209
sg69
(dp210
S'builtinopen'
p211
S'<built-in function open>'
p212
sS'name'
p213
S"'/Users/JoaoBtte/Documents/python/Hello/gluon/contrib/pyfpdf/tutorial/logo_pb.png'"
p214
sS'f'
g111
ssg75
I1692
sg76
(dp215
I1696
S"        if(f.read(8)!='\\x89'+'PNG'+'\\r'+'\\n'+'\\x1a'+'\\n'):"
p216
sI1687
S'        #Extract info from a PNG file'
p217
sI1688
S'        if name.startswith("http://") or name.startswith("https://"):'
p218
sI1689
S'            import urllib'
p219
sI1690
S'            f = urllib.urlopen(name)'
p220
sI1691
S'        else:'
p221
sI1692
S"            f=open(name,'rb')"
p222
sI1693
S'        if(not f):'
p223
sI1694
S'            self.error("Can\'t open image file: "+name)'
p224
sI1695
S'        #Check signature'
p225
ssg88
S"(self=<__restricted__.MyFPDF object>, name='/Users/JoaoBtte/Documents/python/Hello/gluon/contrib/pyfpdf/tutorial/logo_pb.png')"
p226
sg90
S'_parsepng'
p227
sasS'pyver'
p228
S'Python 2.7.2: /usr/bin/python (prefix: /System/Library/Frameworks/Python.framework/Versions/2.7)'
p229
sS'session'
p230
g62
(S's\x96\x06\x00\x00<div><table><tr><td style="font-weight:bold;vertical-align:top;">banda</td><td style="vertical-align:top;">:</td><td><div> Banda Eva</div></td></tr><tr><td style="font-weight:bold;vertical-align:top;">letra</td><td style="vertical-align:top;">:</td><td><div>Tom: D\r\n\t\t\nA9               D9        A9    D9\nVou levar duas medidas na balan\xc3\xa7a\nA9               D9        F#m\nCaminhar entre avenidas do amor\n   D                  Bm\nVertentes que caem do c\xc3\xa9u\n  D                   Bm\nColares que tran\xc3\xa7am a flor\n   D9                 Bm        G   E4 E\nVerdades que doem no peito a raz\xc3\xa3o\n\nA9                 D9            A9    D9\nBom te ver doces momentos nessa estrada\nA9             D9          F#m\nBeira mar, acostamento j\xc3\xa1 se foi\n   D                    Bm\nPresentes que joguei no mar\n   D                Bm\nAs flores que l\xc3\xa1 deixei\n D              Bm                 G\nAinda me lembro como fosse hoje o adeus\n\n   E4 E\nVoltei\n\n   A                D\nS\xc3\xb3 vou querer ter voc\xc3\xaa aqui\n  C#7/4 C#7          F#m\nSorrindo te dar meu amor assim\n  D                  Bm                   G  E4 E\n\xc3\x89 claro que a vida ensina a gente a ser feliz\n  A                 D\nE vou te amar louco de paix\xc3\xa3o\n  C#7/4 C#7          F#m\nSe ainda me quer cheia de prazer\n   D                       Bm               G   E4 E\nEu sou um barco a vela e voc\xc3\xaa \xc3\xa9 o vento que leva\n        A\nMeu cora\xc3\xa7\xc3\xa3o</div></td></tr><tr><td style="font-weight:bold;vertical-align:top;">name</td><td style="vertical-align:top;">:</td><td><div> Duas Medidas </div></td></tr><tr><td style="font-weight:bold;vertical-align:top;">nome_musica</td><td style="vertical-align:top;">:</td><td><div>Duas_Medidas</div></td></tr></table></div>'
tRp231
sS'etype'
p232
S"<type 'exceptions.IOError'>"
p233
sS'date'
p234
S'Mon Sep 23 00:16:38 2013'
p235
sS'response'
p236
g62
(S's\xb8.\x00\x00<div><table><tr><td style="font-weight:bold;vertical-align:top;">body</td><td style="vertical-align:top;">:</td><td><div>&lt;cStringIO.StringO object at 0x10880aae8&gt;</div></td></tr><tr><td style="font-weight:bold;vertical-align:top;">cookies</td><td style="vertical-align:top;">:</td><td><div><table></table></div></td></tr><tr><td style="font-weight:bold;vertical-align:top;">delimiters</td><td style="vertical-align:top;">:</td><td><div><table><tr><td><div>{{</div></td></tr><tr><td><div>}}</div></td></tr></table></div></td></tr><tr><td style="font-weight:bold;vertical-align:top;">files</td><td style="vertical-align:top;">:</td><td><div><table></table></div></td></tr><tr><td style="font-weight:bold;vertical-align:top;">flash</td><td style="vertical-align:top;">:</td><td><div></div></td></tr><tr><td style="font-weight:bold;vertical-align:top;">generic_patterns</td><td style="vertical-align:top;">:</td><td><div><table></table></div></td></tr><tr><td style="font-weight:bold;vertical-align:top;">google_analytics_id</td><td style="vertical-align:top;">:</td><td><div>None</div></td></tr><tr><td style="font-weight:bold;vertical-align:top;">headers</td><td style="vertical-align:top;">:</td><td><div><table><tr><td style="font-weight:bold;vertical-align:top;">X-Powered-By</td><td style="vertical-align:top;">:</td><td><div>web2py</div></td></tr></table></div></td></tr><tr><td style="font-weight:bold;vertical-align:top;">menu</td><td style="vertical-align:top;">:</td><td><div><table><tr><td><div><table><tr><td><div>Home</div></td></tr><tr><td><div>False</div></td></tr><tr><td><div>/Cifra/default/index</div></td></tr><tr><td><div><table></table></div></td></tr></table></div></td></tr><tr><td><div><table><tr><td><div>Evernote</div></td></tr><tr><td><div>True</div></td></tr><tr><td><div>/Cifra/default/index</div></td></tr><tr><td><div><table></table></div></td></tr></table></div></td></tr><tr><td><div><table><tr><td><div>PDF</div></td></tr><tr><td><div>False</div></td></tr><tr><td><div>/Cifra/default/index</div></td></tr><tr><td><div><table></table></div></td></tr></table></div></td></tr><tr><td><div><table><tr><td><div>Imprimir</div></td></tr><tr><td><div>False</div></td></tr><tr><td><div>/Cifra/default/index</div></td></tr><tr><td><div><table></table></div></td></tr></table></div></td></tr><tr><td><div><table><tr><td><div><span class="highlighted">web2py</span></div></td></tr><tr><td><div>False</div></td></tr><tr><td><div>http://web2py.com</div></td></tr><tr><td><div><table><tr><td><div><table><tr><td><div>My Sites</div></td></tr><tr><td><div>False</div></td></tr><tr><td><div>/admin/default/site</div></td></tr></table></div></td></tr><tr><td><div><table><tr><td><div>This App</div></td></tr><tr><td><div>False</div></td></tr><tr><td><div>/admin/default/design/Cifra</div></td></tr><tr><td><div>[(&lt;lazyT &#x27;Controller&#x27;&gt;, False, &#x27;/admin/default/edit/Cifra/controllers/default.py&#x27;), (&lt;lazyT &#x27;View&#x27;&gt;, False, &#x27;/admin/default/edit/Cifra/views/default/to_pdf.html&#x27;), (&lt;lazyT &#x27;Layout&#x27;&gt;, False, &#x27;/admin/default/edit/Cifra/views/layout.html&#x27;), (&lt;lazyT &#x27;Stylesheet&#x27;&gt;, False, &#x27;/admin/default/edit/Cifra/static/css/web2py.css&#x27;), (&lt;lazyT &#x27;DB Model&#x27;&gt;, False, &#x27;/admin/default/edit/Cifra/models/db.py&#x27;), (&lt;lazyT &#x27;Menu Model&#x27;&gt;, False, &#x27;/admin/default/edit/Cifra/models/menu.py&#x27;), (&lt;lazyT &#x27;Database&#x27;&gt;, False, &#x27;/Cifra/appadmin/index&#x27;), (&lt;lazyT &#x27;Errors&#x27;&gt;, False, &#x27;/admin/default/errors/Cifra&#x27;), (&lt;lazyT &#x27;About&#x27;&gt;, False, &#x27;/admin/default/about/Cifra&#x27;)]</div></td></tr></table></div></td></tr><tr><td><div><table><tr><td><div>web2py.com</div></td></tr><tr><td><div>False</div></td></tr><tr><td><div>http://www.web2py.com</div></td></tr><tr><td><div>[(&lt;lazyT &#x27;Download&#x27;&gt;, False, &#x27;http://www.web2py.com/examples/default/download&#x27;), (&lt;lazyT &#x27;Support&#x27;&gt;, False, &#x27;http://www.web2py.com/examples/default/support&#x27;), (&lt;lazyT &#x27;Demo&#x27;&gt;, False, &#x27;http://web2py.com/demo_admin&#x27;), (&lt;lazyT &#x27;Quick Examples&#x27;&gt;, False, &#x27;http://web2py.com/examples/default/examples&#x27;), (&lt;lazyT &#x27;FAQ&#x27;&gt;, False, &#x27;http://web2py.com/AlterEgo&#x27;), (&lt;lazyT &#x27;Videos&#x27;&gt;, False, &#x27;http://www.web2py.com/examples/default/videos/&#x27;), (&lt;lazyT &#x27;Free Applications&#x27;&gt;, False, &#x27;http://web2py.com/appliances&#x27;), (&lt;lazyT &#x27;Plugins&#x27;&gt;, False, &#x27;http://web2py.com/plugins&#x27;), (&lt;lazyT &#x27;Layouts&#x27;&gt;, False, &#x27;http://web2py.com/layouts&#x27;), (&lt;lazyT &#x27;Recipes&#x27;&gt;, False, &#x27;http://web2pyslices.com/&#x27;), (&lt;lazyT &#x27;Semantic&#x27;&gt;, False, &#x27;http://web2py.com/semantic&#x27;)]</div></td></tr></table></div></td></tr><tr><td><div><table><tr><td><div>Documentation</div></td></tr><tr><td><div>False</div></td></tr><tr><td><div>http://www.web2py.com/book</div></td></tr><tr><td><div>[(&lt;lazyT &#x27;Preface&#x27;&gt;, False, &#x27;http://www.web2py.com/book/default/chapter/00&#x27;), (&lt;lazyT &#x27;Introduction&#x27;&gt;, False, &#x27;http://www.web2py.com/book/default/chapter/01&#x27;), (&lt;lazyT &#x27;Python&#x27;&gt;, False, &#x27;http://www.web2py.com/book/default/chapter/02&#x27;), (&lt;lazyT &#x27;Overview&#x27;&gt;, False, &#x27;http://www.web2py.com/book/default/chapter/03&#x27;), (&lt;lazyT &#x27;The Core&#x27;&gt;, False, &#x27;http://www.web2py.com/book/default/chapter/04&#x27;), (&lt;lazyT &#x27;The Views&#x27;&gt;, False, &#x27;http://www.web2py.com/book/default/chapter/05&#x27;), (&lt;lazyT &#x27;Database&#x27;&gt;, False, &#x27;http://www.web2py.com/book/default/chapter/06&#x27;), (&lt;lazyT &#x27;Forms and Validators&#x27;&gt;, False, &#x27;http://www.web2py.com/book/default/chapter/07&#x27;), (&lt;lazyT &#x27;Email and SMS&#x27;&gt;, False, &#x27;http://www.web2py.com/book/default/chapter/08&#x27;), (&lt;lazyT &#x27;Access Control&#x27;&gt;, False, &#x27;http://www.web2py.com/book/default/chapter/09&#x27;), (&lt;lazyT &#x27;Services&#x27;&gt;, False, &#x27;http://www.web2py.com/book/default/chapter/10&#x27;), (&lt;lazyT &#x27;Ajax Recipes&#x27;&gt;, False, &#x27;http://www.web2py.com/book/default/chapter/11&#x27;), (&lt;lazyT &#x27;Components and Plugins&#x27;&gt;, False, &#x27;http://www.web2py.com/book/default/chapter/12&#x27;), (&lt;lazyT &#x27;Deployment Recipes&#x27;&gt;, False, &#x27;http://www.web2py.com/book/default/chapter/13&#x27;), (&lt;lazyT &#x27;Other Recipes&#x27;&gt;, False, &#x27;http://www.web2py.com/book/default/chapter/14&#x27;), (&lt;lazyT &#x27;Buy this book&#x27;&gt;, False, &#x27;http://stores.lulu.com/web2py&#x27;)]</div></td></tr></table></div></td></tr><tr><td><div><table><tr><td><div>Community</div></td></tr><tr><td><div>False</div></td></tr><tr><td><div>None</div></td></tr><tr><td><div>[(&lt;lazyT &#x27;Groups&#x27;&gt;, False, &#x27;http://www.web2py.com/examples/default/usergroups&#x27;), (&lt;lazyT &#x27;Twitter&#x27;&gt;, False, &#x27;http://twitter.com/web2py&#x27;), (&lt;lazyT &#x27;Live Chat&#x27;&gt;, False, &#x27;http://webchat.freenode.net/?channels=web2py&#x27;)]</div></td></tr></table></div></td></tr><tr><td><div><table><tr><td><div>Plugins</div></td></tr><tr><td><div>False</div></td></tr><tr><td><div>None</div></td></tr><tr><td><div>[(&#x27;plugin_wiki&#x27;, False, &#x27;http://web2py.com/examples/default/download&#x27;), (&lt;lazyT &#x27;Other Plugins&#x27;&gt;, False, &#x27;http://web2py.com/plugins&#x27;), (&lt;lazyT &#x27;Layout Plugins&#x27;&gt;, False, &#x27;http://web2py.com/layouts&#x27;)]</div></td></tr></table></div></td></tr></table></div></td></tr></table></div></td></tr></table></div></td></tr><tr><td style="font-weight:bold;vertical-align:top;">meta</td><td style="vertical-align:top;">:</td><td><div><table><tr><td style="font-weight:bold;vertical-align:top;">author</td><td style="vertical-align:top;">:</td><td><div>Your Name &lt;you@example.com&gt;</div></td></tr><tr><td style="font-weight:bold;vertical-align:top;">description</td><td style="vertical-align:top;">:</td><td><div>a cool new app</div></td></tr><tr><td style="font-weight:bold;vertical-align:top;">generator</td><td style="vertical-align:top;">:</td><td><div>Web2py Web Framework</div></td></tr><tr><td style="font-weight:bold;vertical-align:top;">keywords</td><td style="vertical-align:top;">:</td><td><div>web2py, python, framework</div></td></tr></table></div></td></tr><tr><td style="font-weight:bold;vertical-align:top;">models_to_run</td><td style="vertical-align:top;">:</td><td><div><table><tr><td><div>^\\w+\\.py$</div></td></tr><tr><td><div>^default/\\w+\\.py$</div></td></tr><tr><td><div>^default/to_pdf/\\w+\\.py$</div></td></tr></table></div></td></tr><tr><td style="font-weight:bold;vertical-align:top;">postprocessing</td><td style="vertical-align:top;">:</td><td><div><table></table></div></td></tr><tr><td style="font-weight:bold;vertical-align:top;">session_client</td><td style="vertical-align:top;">:</td><td><div>127.0.0.1</div></td></tr><tr><td style="font-weight:bold;vertical-align:top;">session_cookie_compression_level</td><td style="vertical-align:top;">:</td><td><div>None</div></td></tr><tr><td style="font-weight:bold;vertical-align:top;">session_cookie_expires</td><td style="vertical-align:top;">:</td><td><div>None</div></td></tr><tr><td style="font-weight:bold;vertical-align:top;">session_cookie_key</td><td style="vertical-align:top;">:</td><td><div>None</div></td></tr><tr><td style="font-weight:bold;vertical-align:top;">session_data_name</td><td style="vertical-align:top;">:</td><td><div>session_data_cifra</div></td></tr><tr><td style="font-weight:bold;vertical-align:top;">session_file</td><td style="vertical-align:top;">:</td><td><div>&lt;open file &#x27;/Users/JoaoBtte/Documents/python/Hello/applications/Cifra/sessions/127.0.0.1-3d4c39b0-2fb0-443f-bece-4021012e88f2&#x27;, mode &#x27;rb+&#x27; at 0x108827540&gt;</div></td></tr><tr><td style="font-weight:bold;vertical-align:top;">session_filename</td><td style="vertical-align:top;">:</td><td><div>/Users/JoaoBtte/Documents/python/Hello/applications/Cifra/sessions/127.0.0.1-3d4c39b0-2fb0-443f-bece-4021012e88f2</div></td></tr><tr><td style="font-weight:bold;vertical-align:top;">session_hash</td><td style="vertical-align:top;">:</td><td><div>79fd8128228fd8a4c06d5dd123d31189</div></td></tr><tr><td style="font-weight:bold;vertical-align:top;">session_id</td><td style="vertical-align:top;">:</td><td><div>127.0.0.1-3d4c39b0-2fb0-443f-bece-4021012e88f2</div></td></tr><tr><td style="font-weight:bold;vertical-align:top;">session_id_name</td><td style="vertical-align:top;">:</td><td><div>session_id_cifra</div></td></tr><tr><td style="font-weight:bold;vertical-align:top;">session_locked</td><td style="vertical-align:top;">:</td><td><div>True</div></td></tr><tr><td style="font-weight:bold;vertical-align:top;">session_masterapp</td><td style="vertical-align:top;">:</td><td><div>Cifra</div></td></tr><tr><td style="font-weight:bold;vertical-align:top;">session_new</td><td style="vertical-align:top;">:</td><td><div>False</div></td></tr><tr><td style="font-weight:bold;vertical-align:top;">session_storage_type</td><td style="vertical-align:top;">:</td><td><div>file</div></td></tr><tr><td style="font-weight:bold;vertical-align:top;">status</td><td style="vertical-align:top;">:</td><td><div>200</div></td></tr><tr><td style="font-weight:bold;vertical-align:top;">subtitle</td><td style="vertical-align:top;">:</td><td><div></div></td></tr><tr><td style="font-weight:bold;vertical-align:top;">title</td><td style="vertical-align:top;">:</td><td><div> Duas Medidas </div></td></tr><tr><td style="font-weight:bold;vertical-align:top;">view</td><td style="vertical-align:top;">:</td><td><div>default/to_pdf.html</div></td></tr></table></div>'
tRp237
sS'locals'
p238
(dp239
S'self'
p240
S'<__restricted__.MyFPDF object>'
p241
sS'name'
p242
S"'/Users/JoaoBtte/Documents/python/Hello/gluon/contrib/pyfpdf/tutorial/logo_pb.png'"
p243
sssS'traceback'
p244
S'Traceback (most recent call last):\n  File "/Users/JoaoBtte/Documents/python/Hello/gluon/restricted.py", line 217, in restricted\n    exec ccode in environment\n  File "/Users/JoaoBtte/Documents/python/Hello/applications/Cifra/controllers/default.py", line 68, in <module>\n  File "/Users/JoaoBtte/Documents/python/Hello/gluon/globals.py", line 378, in <lambda>\n    self._caller = lambda f: f()\n  File "/Users/JoaoBtte/Documents/python/Hello/applications/Cifra/controllers/default.py", line 58, in to_pdf\n    pdf.add_page()\n  File "/Users/JoaoBtte/Documents/python/Hello/gluon/contrib/fpdf/fpdf.py", line 288, in add_page\n    self.header()\n  File "/Users/JoaoBtte/Documents/python/Hello/applications/Cifra/controllers/default.py", line 42, in header\n    self.image(logo,10,8,33)\n  File "/Users/JoaoBtte/Documents/python/Hello/gluon/contrib/fpdf/fpdf.py", line 915, in image\n    info=self._parsepng(name)\n  File "/Users/JoaoBtte/Documents/python/Hello/gluon/contrib/fpdf/fpdf.py", line 1692, in _parsepng\n    f=open(name,\'rb\')\nIOError: [Errno 2] No such file or directory: \'/Users/JoaoBtte/Documents/python/Hello/gluon/contrib/pyfpdf/tutorial/logo_pb.png\'\n'
p245
s.