(dp1
S'output'
p2
S"<type 'exceptions.NameError'> name 'DEVELOPMENT_MENU' is not defined"
p3
sS'layer'
p4
S'/Users/JoaoBtte/Documents/python/Hello/applications/Cifra/models/menu.py'
p5
sS'code'
p6
S'# -*- coding: utf-8 -*-\n# this file is released under public domain and you can use without limitations\n\n#########################################################################\n## Customize your APP title, subtitle and menus here\n#########################################################################\n\n#response.logo = A(B(\'web\',SPAN(2),\'py\'),XML(\'&trade;&nbsp;\'),\n#                  _class="brand",_href="http://www.web2py.com/")\nresponse.title = request.application.replace(\'_\',\' \').title()\nresponse.subtitle = \'\'\n\n## read more at http://dev.w3.org/html5/markup/meta.name.html\nresponse.meta.author = \'Your Name <you@example.com>\'\nresponse.meta.description = \'a cool new app\'\nresponse.meta.keywords = \'web2py, python, framework\'\nresponse.meta.generator = \'Web2py Web Framework\'\n\n## your http://google.com/analytics id\nresponse.google_analytics_id = None\n\n#########################################################################\n## this is the main application menu add/remove items as required\n#########################################################################\n\nresponse.menu = [\n    (T(\'Home\'), False, URL(\'default\', \'index\'), []),\n    (T(\'Evernote\'), True, URL(\'default\', \'index\'), []),\n    (T(\'PDF\'), False, URL(\'default\', \'index\'), []),\n    (T(\'Imprimir\'), False, URL(\'default\', \'index\'), [])\n\n]\n\n#DEVELOPMENT_MENU = True\n\n#########################################################################\n## provide shortcuts for development. remove in production\n#########################################################################\n\ndef _():\n    # shortcuts\n    app = request.application\n    ctr = request.controller\n    # useful links to internal and external resources\n    response.menu += [\n        (SPAN(\'web2py\', _class=\'highlighted\'), False, \'http://web2py.com\', [\n        (T(\'My Sites\'), False, URL(\'admin\', \'default\', \'site\')),\n        (T(\'This App\'), False, URL(\'admin\', \'default\', \'design/%s\' % app), [\n        (T(\'Controller\'), False,\n         URL(\n         \'admin\', \'default\', \'edit/%s/controllers/%s.py\' % (app, ctr))),\n        (T(\'View\'), False,\n         URL(\n         \'admin\', \'default\', \'edit/%s/views/%s\' % (app, response.view))),\n        (T(\'Layout\'), False,\n         URL(\n         \'admin\', \'default\', \'edit/%s/views/layout.html\' % app)),\n        (T(\'Stylesheet\'), False,\n         URL(\n         \'admin\', \'default\', \'edit/%s/static/css/web2py.css\' % app)),\n        (T(\'DB Model\'), False,\n         URL(\n         \'admin\', \'default\', \'edit/%s/models/db.py\' % app)),\n        (T(\'Menu Model\'), False,\n         URL(\n         \'admin\', \'default\', \'edit/%s/models/menu.py\' % app)),\n        (T(\'Database\'), False, URL(app, \'appadmin\', \'index\')),\n        (T(\'Errors\'), False, URL(\n         \'admin\', \'default\', \'errors/\' + app)),\n        (T(\'About\'), False, URL(\n         \'admin\', \'default\', \'about/\' + app)),\n        ]),\n            (\'web2py.com\', False, \'http://www.web2py.com\', [\n             (T(\'Download\'), False,\n              \'http://www.web2py.com/examples/default/download\'),\n             (T(\'Support\'), False,\n              \'http://www.web2py.com/examples/default/support\'),\n             (T(\'Demo\'), False, \'http://web2py.com/demo_admin\'),\n             (T(\'Quick Examples\'), False,\n              \'http://web2py.com/examples/default/examples\'),\n             (T(\'FAQ\'), False, \'http://web2py.com/AlterEgo\'),\n             (T(\'Videos\'), False,\n              \'http://www.web2py.com/examples/default/videos/\'),\n             (T(\'Free Applications\'),\n              False, \'http://web2py.com/appliances\'),\n             (T(\'Plugins\'), False, \'http://web2py.com/plugins\'),\n             (T(\'Layouts\'), False, \'http://web2py.com/layouts\'),\n             (T(\'Recipes\'), False, \'http://web2pyslices.com/\'),\n             (T(\'Semantic\'), False, \'http://web2py.com/semantic\'),\n             ]),\n            (T(\'Documentation\'), False, \'http://www.web2py.com/book\', [\n             (T(\'Preface\'), False,\n              \'http://www.web2py.com/book/default/chapter/00\'),\n             (T(\'Introduction\'), False,\n              \'http://www.web2py.com/book/default/chapter/01\'),\n             (T(\'Python\'), False,\n              \'http://www.web2py.com/book/default/chapter/02\'),\n             (T(\'Overview\'), False,\n              \'http://www.web2py.com/book/default/chapter/03\'),\n             (T(\'The Core\'), False,\n              \'http://www.web2py.com/book/default/chapter/04\'),\n             (T(\'The Views\'), False,\n              \'http://www.web2py.com/book/default/chapter/05\'),\n             (T(\'Database\'), False,\n              \'http://www.web2py.com/book/default/chapter/06\'),\n             (T(\'Forms and Validators\'), False,\n              \'http://www.web2py.com/book/default/chapter/07\'),\n             (T(\'Email and SMS\'), False,\n              \'http://www.web2py.com/book/default/chapter/08\'),\n             (T(\'Access Control\'), False,\n              \'http://www.web2py.com/book/default/chapter/09\'),\n             (T(\'Services\'), False,\n              \'http://www.web2py.com/book/default/chapter/10\'),\n             (T(\'Ajax Recipes\'), False,\n              \'http://www.web2py.com/book/default/chapter/11\'),\n             (T(\'Components and Plugins\'), False,\n              \'http://www.web2py.com/book/default/chapter/12\'),\n             (T(\'Deployment Recipes\'), False,\n              \'http://www.web2py.com/book/default/chapter/13\'),\n             (T(\'Other Recipes\'), False,\n              \'http://www.web2py.com/book/default/chapter/14\'),\n             (T(\'Buy this book\'), False,\n              \'http://stores.lulu.com/web2py\'),\n             ]),\n            (T(\'Community\'), False, None, [\n             (T(\'Groups\'), False,\n              \'http://www.web2py.com/examples/default/usergroups\'),\n                        (T(\'Twitter\'), False, \'http://twitter.com/web2py\'),\n                        (T(\'Live Chat\'), False,\n                         \'http://webchat.freenode.net/?channels=web2py\'),\n                        ]),\n                (T(\'Plugins\'), False, None, [\n                        (\'plugin_wiki\', False,\n                         \'http://web2py.com/examples/default/download\'),\n                        (T(\'Other Plugins\'), False,\n                         \'http://web2py.com/plugins\'),\n                        (T(\'Layout Plugins\'),\n                         False, \'http://web2py.com/layouts\'),\n                        ])\n                ]\n         )]\nif DEVELOPMENT_MENU: _()\n\nif "auth" in locals(): auth.wikimenu()\n'
p7
sS'snapshot'
p8
(dp9
S'exception'
p10
(dp11
S'__hash__'
p12
S"<method-wrapper '__hash__' of exceptions.NameError object>"
p13
sS'__setattr__'
p14
S"<method-wrapper '__setattr__' of exceptions.NameError object>"
p15
sS'__reduce_ex__'
p16
S'<built-in method __reduce_ex__ of exceptions.NameError object>'
p17
sS'__getslice__'
p18
S"<method-wrapper '__getslice__' of exceptions.NameError object>"
p19
sS'__getitem__'
p20
S"<method-wrapper '__getitem__' of exceptions.NameError object>"
p21
sS'__setstate__'
p22
S'<built-in method __setstate__ of exceptions.NameError object>'
p23
sS'args'
p24
S'("name \'DEVELOPMENT_MENU\' is not defined",)'
p25
sS'__reduce__'
p26
S'<built-in method __reduce__ of exceptions.NameError object>'
p27
sS'__str__'
p28
S"<method-wrapper '__str__' of exceptions.NameError object>"
p29
sS'__format__'
p30
S'<built-in method __format__ of exceptions.NameError object>'
p31
sS'__getattribute__'
p32
S"<method-wrapper '__getattribute__' of exceptions.NameError object>"
p33
sS'__class__'
p34
S"<type 'exceptions.NameError'>"
p35
sS'__unicode__'
p36
S'<built-in method __unicode__ of exceptions.NameError object>'
p37
sS'__delattr__'
p38
S"<method-wrapper '__delattr__' of exceptions.NameError object>"
p39
sS'__subclasshook__'
p40
S'<built-in method __subclasshook__ of type object>'
p41
sS'__repr__'
p42
S"<method-wrapper '__repr__' of exceptions.NameError object>"
p43
sS'__dict__'
p44
S'{}'
p45
sS'__sizeof__'
p46
S'<built-in method __sizeof__ of exceptions.NameError object>'
p47
sS'__doc__'
p48
S"'Name not found globally.'"
p49
sS'__init__'
p50
S"<method-wrapper '__init__' of exceptions.NameError object>"
p51
sS'__new__'
p52
S'<built-in method __new__ of type object>'
p53
ssS'evalue'
p54
S"name 'DEVELOPMENT_MENU' is not defined"
p55
sS'request'
p56
cgluon.html
XML_unpickle
p57
(S'sm]\x00\x00<div><table><tr><td style="font-weight:bold;vertical-align:top;">ajax</td><td style="vertical-align:top;">:</td><td><div>False</div></td></tr><tr><td style="font-weight:bold;vertical-align:top;">application</td><td style="vertical-align:top;">:</td><td><div>Cifra</div></td></tr><tr><td style="font-weight:bold;vertical-align:top;">args</td><td style="vertical-align:top;">:</td><td><div><table></table></div></td></tr><tr><td style="font-weight:bold;vertical-align:top;">cid</td><td style="vertical-align:top;">:</td><td><div>None</div></td></tr><tr><td style="font-weight:bold;vertical-align:top;">client</td><td style="vertical-align:top;">:</td><td><div>127.0.0.1</div></td></tr><tr><td style="font-weight:bold;vertical-align:top;">controller</td><td style="vertical-align:top;">:</td><td><div>default</div></td></tr><tr><td style="font-weight:bold;vertical-align:top;">cookies</td><td style="vertical-align:top;">:</td><td><div><table><tr><td style="font-weight:bold;vertical-align:top;">session_id_admin</td><td style="vertical-align:top;">:</td><td><div>127.0.0.1-84987252-300a-4b58-8209-e108f5b60dfa<table><tr><td style="font-weight:bold;vertical-align:top;">comment</td><td style="vertical-align:top;">:</td><td><div></div></td></tr><tr><td style="font-weight:bold;vertical-align:top;">domain</td><td style="vertical-align:top;">:</td><td><div></div></td></tr><tr><td style="font-weight:bold;vertical-align:top;">expires</td><td style="vertical-align:top;">:</td><td><div></div></td></tr><tr><td style="font-weight:bold;vertical-align:top;">httponly</td><td style="vertical-align:top;">:</td><td><div></div></td></tr><tr><td style="font-weight:bold;vertical-align:top;">max-age</td><td style="vertical-align:top;">:</td><td><div></div></td></tr><tr><td style="font-weight:bold;vertical-align:top;">path</td><td style="vertical-align:top;">:</td><td><div></div></td></tr><tr><td style="font-weight:bold;vertical-align:top;">secure</td><td style="vertical-align:top;">:</td><td><div></div></td></tr><tr><td style="font-weight:bold;vertical-align:top;">version</td><td style="vertical-align:top;">:</td><td><div></div></td></tr></table></div></td></tr><tr><td style="font-weight:bold;vertical-align:top;">session_id_cifra</td><td style="vertical-align:top;">:</td><td><div>127.0.0.1-a5df85fe-25f5-44eb-9e4f-45b36b87130f<table><tr><td style="font-weight:bold;vertical-align:top;">comment</td><td style="vertical-align:top;">:</td><td><div></div></td></tr><tr><td style="font-weight:bold;vertical-align:top;">domain</td><td style="vertical-align:top;">:</td><td><div></div></td></tr><tr><td style="font-weight:bold;vertical-align:top;">expires</td><td style="vertical-align:top;">:</td><td><div></div></td></tr><tr><td style="font-weight:bold;vertical-align:top;">httponly</td><td style="vertical-align:top;">:</td><td><div></div></td></tr><tr><td style="font-weight:bold;vertical-align:top;">max-age</td><td style="vertical-align:top;">:</td><td><div></div></td></tr><tr><td style="font-weight:bold;vertical-align:top;">path</td><td style="vertical-align:top;">:</td><td><div></div></td></tr><tr><td style="font-weight:bold;vertical-align:top;">secure</td><td style="vertical-align:top;">:</td><td><div></div></td></tr><tr><td style="font-weight:bold;vertical-align:top;">version</td><td style="vertical-align:top;">:</td><td><div></div></td></tr></table></div></td></tr><tr><td style="font-weight:bold;vertical-align:top;">session_id_welcome</td><td style="vertical-align:top;">:</td><td><div>127.0.0.1-9f106c6d-5ad7-4618-9388-55599edae5de<table><tr><td style="font-weight:bold;vertical-align:top;">comment</td><td style="vertical-align:top;">:</td><td><div></div></td></tr><tr><td style="font-weight:bold;vertical-align:top;">domain</td><td style="vertical-align:top;">:</td><td><div></div></td></tr><tr><td style="font-weight:bold;vertical-align:top;">expires</td><td style="vertical-align:top;">:</td><td><div></div></td></tr><tr><td style="font-weight:bold;vertical-align:top;">httponly</td><td style="vertical-align:top;">:</td><td><div></div></td></tr><tr><td style="font-weight:bold;vertical-align:top;">max-age</td><td style="vertical-align:top;">:</td><td><div></div></td></tr><tr><td style="font-weight:bold;vertical-align:top;">path</td><td style="vertical-align:top;">:</td><td><div></div></td></tr><tr><td style="font-weight:bold;vertical-align:top;">secure</td><td style="vertical-align:top;">:</td><td><div></div></td></tr><tr><td style="font-weight:bold;vertical-align:top;">version</td><td style="vertical-align:top;">:</td><td><div></div></td></tr></table></div></td></tr></table></div></td></tr><tr><td style="font-weight:bold;vertical-align:top;">env</td><td style="vertical-align:top;">:</td><td><div><table><tr><td style="font-weight:bold;vertical-align:top;">HTTP_ACCEPT</td><td style="vertical-align:top;">:</td><td><div>text/html,application/xhtml+xml,application/xml;q=0.9,*/*;q=0.8</div></td></tr><tr><td style="font-weight:bold;vertical-align:top;">HTTP_ACCEPT_ENCODING</td><td style="vertical-align:top;">:</td><td><div>gzip,deflate,sdch</div></td></tr><tr><td style="font-weight:bold;vertical-align:top;">HTTP_ACCEPT_LANGUAGE</td><td style="vertical-align:top;">:</td><td><div>pt-BR,pt;q=0.8,en-US;q=0.6,en;q=0.4</div></td></tr><tr><td style="font-weight:bold;vertical-align:top;">HTTP_CACHE_CONTROL</td><td style="vertical-align:top;">:</td><td><div>max-age=0</div></td></tr><tr><td style="font-weight:bold;vertical-align:top;">HTTP_CONNECTION</td><td style="vertical-align:top;">:</td><td><div>keep-alive</div></td></tr><tr><td style="font-weight:bold;vertical-align:top;">HTTP_COOKIE</td><td style="vertical-align:top;">:</td><td><div>session_id_welcome=127.0.0.1-9f106c6d-5ad7-4618-9388-55599edae5de; session_id_cifra=127.0.0.1-a5df85fe-25f5-44eb-9e4f-45b36b87130f; session_id_admin=127.0.0.1-84987252-300a-4b58-8209-e108f5b60dfa</div></td></tr><tr><td style="font-weight:bold;vertical-align:top;">HTTP_HOST</td><td style="vertical-align:top;">:</td><td><div>127.0.0.1:8000</div></td></tr><tr><td style="font-weight:bold;vertical-align:top;">HTTP_REFERER</td><td style="vertical-align:top;">:</td><td><div>http://127.0.0.1:8000/admin/default/design/Cifra</div></td></tr><tr><td style="font-weight:bold;vertical-align:top;">HTTP_USER_AGENT</td><td style="vertical-align:top;">:</td><td><div>Mozilla/5.0 (Macintosh; Intel Mac OS X 10_8_5) AppleWebKit/537.36 (KHTML, like Gecko) Chrome/29.0.1547.76 Safari/537.36</div></td></tr><tr><td style="font-weight:bold;vertical-align:top;">PATH_INFO</td><td style="vertical-align:top;">:</td><td><div>/Cifra/default/index</div></td></tr><tr><td style="font-weight:bold;vertical-align:top;">QUERY_STRING</td><td style="vertical-align:top;">:</td><td><div></div></td></tr><tr><td style="font-weight:bold;vertical-align:top;">REMOTE_ADDR</td><td style="vertical-align:top;">:</td><td><div>127.0.0.1</div></td></tr><tr><td style="font-weight:bold;vertical-align:top;">REMOTE_PORT</td><td style="vertical-align:top;">:</td><td><div>52564</div></td></tr><tr><td style="font-weight:bold;vertical-align:top;">REQUEST_METHOD</td><td style="vertical-align:top;">:</td><td><div>GET</div></td></tr><tr><td style="font-weight:bold;vertical-align:top;">SCRIPT_NAME</td><td style="vertical-align:top;">:</td><td><div></div></td></tr><tr><td style="font-weight:bold;vertical-align:top;">SERVER_NAME</td><td style="vertical-align:top;">:</td><td><div>MacBook-Pro-de-Joao.local</div></td></tr><tr><td style="font-weight:bold;vertical-align:top;">SERVER_PORT</td><td style="vertical-align:top;">:</td><td><div>8000</div></td></tr><tr><td style="font-weight:bold;vertical-align:top;">SERVER_PROTOCOL</td><td style="vertical-align:top;">:</td><td><div>HTTP/1.1</div></td></tr><tr><td style="font-weight:bold;vertical-align:top;">SERVER_SOFTWARE</td><td style="vertical-align:top;">:</td><td><div>Rocket 1.2.6</div></td></tr><tr><td style="font-weight:bold;vertical-align:top;">app_folders</td><td style="vertical-align:top;">:</td><td><div>set([&#x27;/Users/JoaoBtte/Documents/python/Hello/applications/admin/&#x27;, &#x27;/Users/JoaoBtte/Documents/python/Hello/applications/welcome/&#x27;, &#x27;/Users/JoaoBtte/Documents/python/Hello/applications/Cifra/&#x27;])</div></td></tr><tr><td style="font-weight:bold;vertical-align:top;">applications_parent</td><td style="vertical-align:top;">:</td><td><div>/Users/JoaoBtte/Documents/python/Hello</div></td></tr><tr><td style="font-weight:bold;vertical-align:top;">cmd_args</td><td style="vertical-align:top;">:</td><td><div><table></table></div></td></tr><tr><td style="font-weight:bold;vertical-align:top;">cmd_options</td><td style="vertical-align:top;">:</td><td><div>&lt;Values at 0x10d01d830: {&#x27;verbose&#x27;: False, &#x27;ip&#x27;: &#x27;127.0.0.1&#x27;, &#x27;debuglevel&#x27;: 30, &#x27;with_scheduler&#x27;: False, &#x27;ips&#x27;: [&#x27;fe80::22c9:d0ff:fed9:645f%en1&#x27;, &#x27;192.168.0.22&#x27;], &#x27;shutdown_timeout&#x27;: 5, &#x27;taskbar&#x27;: False, &#x27;with_coverage&#x27;: False, &#x27;port&#x27;: 8000, &#x27;maxthreads&#x27;: None, &#x27;softcron&#x27;: False, &#x27;server_name&#x27;: &#x27;MacBook-Pro-de-Joao.local&#x27;, &#x27;bpython&#x27;: False, &#x27;nogui&#x27;: False, &#x27;pid_filename&#x27;: &#x27;httpserver.pid&#x27;, &#x27;extcron&#x27;: False, &#x27;runcron&#x27;: False, &#x27;run_system_tests&#x27;: False, &#x27;test&#x27;: None, &#x27;folder&#x27;: &#x27;/Users/JoaoBtte/Documents/python/Hello&#x27;, &#x27;config&#x27;: &#x27;&#x27;, &#x27;minthreads&#x27;: None, &#x27;winservice&#x27;: &#x27;&#x27;, &#x27;shell&#x27;: None, &#x27;run&#x27;: &#x27;&#x27;, &#x27;log_filename&#x27;: &#x27;httpserver.log&#x27;, &#x27;profiler_dir&#x27;: None, &#x27;args&#x27;: [&#x27;&#x27;], &#x27;socket_timeout&#x27;: 5, &#x27;ssl_ca_certificate&#x27;: None, &#x27;scheduler&#x27;: None, &#x27;interfaces&#x27;: None, &#x27;ssl_private_key&#x27;: &#x27;&#x27;, &#x27;scheduler_groups&#x27;: None, &#x27;password&#x27;: &#x27;&lt;ask&gt;&#x27;, &#x27;request_queue_size&#x27;: 5, &#x27;ssl_certificate&#x27;: &#x27;&#x27;, &#x27;cronjob&#x27;: False, &#x27;numthreads&#x27;: None, &#x27;quiet&#x27;: False, &#x27;import_models&#x27;: False, &#x27;timeout&#x27;: 10, &#x27;plain&#x27;: False, &#x27;nobanner&#x27;: False}&gt;</div></td></tr><tr><td style="font-weight:bold;vertical-align:top;">db_sessions</td><td style="vertical-align:top;">:</td><td><div>set([])</div></td></tr><tr><td style="font-weight:bold;vertical-align:top;">debugging</td><td style="vertical-align:top;">:</td><td><div>True</div></td></tr><tr><td style="font-weight:bold;vertical-align:top;">gluon_parent</td><td style="vertical-align:top;">:</td><td><div>/Users/JoaoBtte/Documents/python/Hello</div></td></tr><tr><td style="font-weight:bold;vertical-align:top;">http_accept</td><td style="vertical-align:top;">:</td><td><div>text/html,application/xhtml+xml,application/xml;q=0.9,*/*;q=0.8</div></td></tr><tr><td style="font-weight:bold;vertical-align:top;">http_accept_encoding</td><td style="vertical-align:top;">:</td><td><div>gzip,deflate,sdch</div></td></tr><tr><td style="font-weight:bold;vertical-align:top;">http_accept_language</td><td style="vertical-align:top;">:</td><td><div>pt-BR,pt;q=0.8,en-US;q=0.6,en;q=0.4</div></td></tr><tr><td style="font-weight:bold;vertical-align:top;">http_cache_control</td><td style="vertical-align:top;">:</td><td><div>max-age=0</div></td></tr><tr><td style="font-weight:bold;vertical-align:top;">http_connection</td><td style="vertical-align:top;">:</td><td><div>keep-alive</div></td></tr><tr><td style="font-weight:bold;vertical-align:top;">http_cookie</td><td style="vertical-align:top;">:</td><td><div>session_id_welcome=127.0.0.1-9f106c6d-5ad7-4618-9388-55599edae5de; session_id_cifra=127.0.0.1-a5df85fe-25f5-44eb-9e4f-45b36b87130f; session_id_admin=127.0.0.1-84987252-300a-4b58-8209-e108f5b60dfa</div></td></tr><tr><td style="font-weight:bold;vertical-align:top;">http_host</td><td style="vertical-align:top;">:</td><td><div>127.0.0.1:8000</div></td></tr><tr><td style="font-weight:bold;vertical-align:top;">http_referer</td><td style="vertical-align:top;">:</td><td><div>http://127.0.0.1:8000/admin/default/design/Cifra</div></td></tr><tr><td style="font-weight:bold;vertical-align:top;">http_user_agent</td><td style="vertical-align:top;">:</td><td><div>Mozilla/5.0 (Macintosh; Intel Mac OS X 10_8_5) AppleWebKit/537.36 (KHTML, like Gecko) Chrome/29.0.1547.76 Safari/537.36</div></td></tr><tr><td style="font-weight:bold;vertical-align:top;">is_jython</td><td style="vertical-align:top;">:</td><td><div>False</div></td></tr><tr><td style="font-weight:bold;vertical-align:top;">is_pypy</td><td style="vertical-align:top;">:</td><td><div>False</div></td></tr><tr><td style="font-weight:bold;vertical-align:top;">is_source</td><td style="vertical-align:top;">:</td><td><div>True</div></td></tr><tr><td style="font-weight:bold;vertical-align:top;">local_hosts</td><td style="vertical-align:top;">:</td><td><div><table><tr><td><div>fe80::22c9:d0ff:fed9:645f%en1</div></td></tr><tr><td><div>::ffff:127.0.0.1</div></td></tr><tr><td><div>::1</div></td></tr><tr><td><div>192.168.0.22</div></td></tr><tr><td><div>MacBook-Pro-de-Joao.local</div></td></tr><tr><td><div>127.0.0.1</div></td></tr></table></div></td></tr><tr><td style="font-weight:bold;vertical-align:top;">path_info</td><td style="vertical-align:top;">:</td><td><div>/Cifra/default/index</div></td></tr><tr><td style="font-weight:bold;vertical-align:top;">query_string</td><td style="vertical-align:top;">:</td><td><div></div></td></tr><tr><td style="font-weight:bold;vertical-align:top;">remote_addr</td><td style="vertical-align:top;">:</td><td><div>127.0.0.1</div></td></tr><tr><td style="font-weight:bold;vertical-align:top;">remote_port</td><td style="vertical-align:top;">:</td><td><div>52564</div></td></tr><tr><td style="font-weight:bold;vertical-align:top;">request_method</td><td style="vertical-align:top;">:</td><td><div>GET</div></td></tr><tr><td style="font-weight:bold;vertical-align:top;">request_uri</td><td style="vertical-align:top;">:</td><td><div>/Cifra/default/index</div></td></tr><tr><td style="font-weight:bold;vertical-align:top;">script_name</td><td style="vertical-align:top;">:</td><td><div></div></td></tr><tr><td style="font-weight:bold;vertical-align:top;">server_name</td><td style="vertical-align:top;">:</td><td><div>MacBook-Pro-de-Joao.local</div></td></tr><tr><td style="font-weight:bold;vertical-align:top;">server_port</td><td style="vertical-align:top;">:</td><td><div>8000</div></td></tr><tr><td style="font-weight:bold;vertical-align:top;">server_protocol</td><td style="vertical-align:top;">:</td><td><div>HTTP/1.1</div></td></tr><tr><td style="font-weight:bold;vertical-align:top;">server_software</td><td style="vertical-align:top;">:</td><td><div>Rocket 1.2.6</div></td></tr><tr><td style="font-weight:bold;vertical-align:top;">web2py_path</td><td style="vertical-align:top;">:</td><td><div>/Users/JoaoBtte/Documents/python/Hello</div></td></tr><tr><td style="font-weight:bold;vertical-align:top;">web2py_version</td><td style="vertical-align:top;">:</td><td><div>2.6.2-stable+timestamp.2013.09.13.22.53.04</div></td></tr><tr><td style="font-weight:bold;vertical-align:top;">wsgi.errors</td><td style="vertical-align:top;">:</td><td><div>&lt;open file &#x27;&lt;stderr&gt;&#x27;, mode &#x27;w&#x27; at 0x10c0a9270&gt;</div></td></tr><tr><td style="font-weight:bold;vertical-align:top;">wsgi.file_wrapper</td><td style="vertical-align:top;">:</td><td><div>&lt;class wsgiref.util.FileWrapper at 0x10d03d328&gt;</div></td></tr><tr><td style="font-weight:bold;vertical-align:top;">wsgi.input</td><td style="vertical-align:top;">:</td><td><div>&lt;socket._fileobject object at 0x10d4f34d0&gt;</div></td></tr><tr><td style="font-weight:bold;vertical-align:top;">wsgi.multiprocess</td><td style="vertical-align:top;">:</td><td><div>False</div></td></tr><tr><td style="font-weight:bold;vertical-align:top;">wsgi.multithread</td><td style="vertical-align:top;">:</td><td><div>True</div></td></tr><tr><td style="font-weight:bold;vertical-align:top;">wsgi.run_once</td><td style="vertical-align:top;">:</td><td><div>False</div></td></tr><tr><td style="font-weight:bold;vertical-align:top;">wsgi.url_scheme</td><td style="vertical-align:top;">:</td><td><div>http</div></td></tr><tr><td style="font-weight:bold;vertical-align:top;">wsgi.version</td><td style="vertical-align:top;">:</td><td><div><table><tr><td><div>1</div></td></tr><tr><td><div>0</div></td></tr></table></div></td></tr><tr><td style="font-weight:bold;vertical-align:top;">wsgi_errors</td><td style="vertical-align:top;">:</td><td><div>&lt;open file &#x27;&lt;stderr&gt;&#x27;, mode &#x27;w&#x27; at 0x10c0a9270&gt;</div></td></tr><tr><td style="font-weight:bold;vertical-align:top;">wsgi_file_wrapper</td><td style="vertical-align:top;">:</td><td><div>&lt;class wsgiref.util.FileWrapper at 0x10d03d328&gt;</div></td></tr><tr><td style="font-weight:bold;vertical-align:top;">wsgi_input</td><td style="vertical-align:top;">:</td><td><div>&lt;socket._fileobject object at 0x10d4f34d0&gt;</div></td></tr><tr><td style="font-weight:bold;vertical-align:top;">wsgi_multiprocess</td><td style="vertical-align:top;">:</td><td><div>False</div></td></tr><tr><td style="font-weight:bold;vertical-align:top;">wsgi_multithread</td><td style="vertical-align:top;">:</td><td><div>True</div></td></tr><tr><td style="font-weight:bold;vertical-align:top;">wsgi_run_once</td><td style="vertical-align:top;">:</td><td><div>False</div></td></tr><tr><td style="font-weight:bold;vertical-align:top;">wsgi_url_scheme</td><td style="vertical-align:top;">:</td><td><div>http</div></td></tr><tr><td style="font-weight:bold;vertical-align:top;">wsgi_version</td><td style="vertical-align:top;">:</td><td><div><table><tr><td><div>1</div></td></tr><tr><td><div>0</div></td></tr></table></div></td></tr></table></div></td></tr><tr><td style="font-weight:bold;vertical-align:top;">extension</td><td style="vertical-align:top;">:</td><td><div>html</div></td></tr><tr><td style="font-weight:bold;vertical-align:top;">folder</td><td style="vertical-align:top;">:</td><td><div>/Users/JoaoBtte/Documents/python/Hello/applications/Cifra/</div></td></tr><tr><td style="font-weight:bold;vertical-align:top;">function</td><td style="vertical-align:top;">:</td><td><div>index</div></td></tr><tr><td style="font-weight:bold;vertical-align:top;">global_settings</td><td style="vertical-align:top;">:</td><td><div><table><tr><td style="font-weight:bold;vertical-align:top;">app_folders</td><td style="vertical-align:top;">:</td><td><div>set([&#x27;/Users/JoaoBtte/Documents/python/Hello/applications/admin/&#x27;, &#x27;/Users/JoaoBtte/Documents/python/Hello/applications/welcome/&#x27;, &#x27;/Users/JoaoBtte/Documents/python/Hello/applications/Cifra/&#x27;])</div></td></tr><tr><td style="font-weight:bold;vertical-align:top;">applications_parent</td><td style="vertical-align:top;">:</td><td><div>/Users/JoaoBtte/Documents/python/Hello</div></td></tr><tr><td style="font-weight:bold;vertical-align:top;">cmd_args</td><td style="vertical-align:top;">:</td><td><div><table></table></div></td></tr><tr><td style="font-weight:bold;vertical-align:top;">cmd_options</td><td style="vertical-align:top;">:</td><td><div>&lt;Values at 0x10d01d830: {&#x27;verbose&#x27;: False, &#x27;ip&#x27;: &#x27;127.0.0.1&#x27;, &#x27;debuglevel&#x27;: 30, &#x27;with_scheduler&#x27;: False, &#x27;ips&#x27;: [&#x27;fe80::22c9:d0ff:fed9:645f%en1&#x27;, &#x27;192.168.0.22&#x27;], &#x27;shutdown_timeout&#x27;: 5, &#x27;taskbar&#x27;: False, &#x27;with_coverage&#x27;: False, &#x27;port&#x27;: 8000, &#x27;maxthreads&#x27;: None, &#x27;softcron&#x27;: False, &#x27;server_name&#x27;: &#x27;MacBook-Pro-de-Joao.local&#x27;, &#x27;bpython&#x27;: False, &#x27;nogui&#x27;: False, &#x27;pid_filename&#x27;: &#x27;httpserver.pid&#x27;, &#x27;extcron&#x27;: False, &#x27;runcron&#x27;: False, &#x27;run_system_tests&#x27;: False, &#x27;test&#x27;: None, &#x27;folder&#x27;: &#x27;/Users/JoaoBtte/Documents/python/Hello&#x27;, &#x27;config&#x27;: &#x27;&#x27;, &#x27;minthreads&#x27;: None, &#x27;winservice&#x27;: &#x27;&#x27;, &#x27;shell&#x27;: None, &#x27;run&#x27;: &#x27;&#x27;, &#x27;log_filename&#x27;: &#x27;httpserver.log&#x27;, &#x27;profiler_dir&#x27;: None, &#x27;args&#x27;: [&#x27;&#x27;], &#x27;socket_timeout&#x27;: 5, &#x27;ssl_ca_certificate&#x27;: None, &#x27;scheduler&#x27;: None, &#x27;interfaces&#x27;: None, &#x27;ssl_private_key&#x27;: &#x27;&#x27;, &#x27;scheduler_groups&#x27;: None, &#x27;password&#x27;: &#x27;&lt;ask&gt;&#x27;, &#x27;request_queue_size&#x27;: 5, &#x27;ssl_certificate&#x27;: &#x27;&#x27;, &#x27;cronjob&#x27;: False, &#x27;numthreads&#x27;: None, &#x27;quiet&#x27;: False, &#x27;import_models&#x27;: False, &#x27;timeout&#x27;: 10, &#x27;plain&#x27;: False, &#x27;nobanner&#x27;: False}&gt;</div></td></tr><tr><td style="font-weight:bold;vertical-align:top;">db_sessions</td><td style="vertical-align:top;">:</td><td><div>set([])</div></td></tr><tr><td style="font-weight:bold;vertical-align:top;">debugging</td><td style="vertical-align:top;">:</td><td><div>True</div></td></tr><tr><td style="font-weight:bold;vertical-align:top;">gluon_parent</td><td style="vertical-align:top;">:</td><td><div>/Users/JoaoBtte/Documents/python/Hello</div></td></tr><tr><td style="font-weight:bold;vertical-align:top;">is_jython</td><td style="vertical-align:top;">:</td><td><div>False</div></td></tr><tr><td style="font-weight:bold;vertical-align:top;">is_pypy</td><td style="vertical-align:top;">:</td><td><div>False</div></td></tr><tr><td style="font-weight:bold;vertical-align:top;">is_source</td><td style="vertical-align:top;">:</td><td><div>True</div></td></tr><tr><td style="font-weight:bold;vertical-align:top;">local_hosts</td><td style="vertical-align:top;">:</td><td><div><table><tr><td><div>fe80::22c9:d0ff:fed9:645f%en1</div></td></tr><tr><td><div>::ffff:127.0.0.1</div></td></tr><tr><td><div>::1</div></td></tr><tr><td><div>192.168.0.22</div></td></tr><tr><td><div>MacBook-Pro-de-Joao.local</div></td></tr><tr><td><div>127.0.0.1</div></td></tr></table></div></td></tr><tr><td style="font-weight:bold;vertical-align:top;">web2py_version</td><td style="vertical-align:top;">:</td><td><div>2.6.2-stable+timestamp.2013.09.13.22.53.04</div></td></tr></table></div></td></tr><tr><td style="font-weight:bold;vertical-align:top;">is_https</td><td style="vertical-align:top;">:</td><td><div>False</div></td></tr><tr><td style="font-weight:bold;vertical-align:top;">is_local</td><td style="vertical-align:top;">:</td><td><div>True</div></td></tr><tr><td style="font-weight:bold;vertical-align:top;">is_restful</td><td style="vertical-align:top;">:</td><td><div>False</div></td></tr><tr><td style="font-weight:bold;vertical-align:top;">now</td><td style="vertical-align:top;">:</td><td><div>datetime.datetime(2013, 10, 2, 18, 33, 17, 453873)</div></td></tr><tr><td style="font-weight:bold;vertical-align:top;">raw_args</td><td style="vertical-align:top;">:</td><td><div></div></td></tr><tr><td style="font-weight:bold;vertical-align:top;">raw_extension</td><td style="vertical-align:top;">:</td><td><div>None</div></td></tr><tr><td style="font-weight:bold;vertical-align:top;">url</td><td style="vertical-align:top;">:</td><td><div>/Cifra/default/index</div></td></tr><tr><td style="font-weight:bold;vertical-align:top;">utcnow</td><td style="vertical-align:top;">:</td><td><div>datetime.datetime(2013, 10, 2, 21, 33, 17, 453883)</div></td></tr><tr><td style="font-weight:bold;vertical-align:top;">uuid</td><td style="vertical-align:top;">:</td><td><div>Cifra/127.0.0.1.2013-10-02.18-33-17.8a992f52-3c2c-4d46-baf5-e3b0ea7200fe</div></td></tr><tr><td style="font-weight:bold;vertical-align:top;">wsgi</td><td style="vertical-align:top;">:</td><td><div>&lt;gluon.main.LazyWSGI object at 0x1116f8490&gt;</div></td></tr></table></div>'
tRp58
sS'frames'
p59
(lp60
(dp61
S'file'
p62
S'/Users/JoaoBtte/Documents/python/Hello/gluon/restricted.py'
p63
sS'dump'
p64
(dp65
S'environment'
p66
S"{'A': <class 'gluon.html.A'>, 'ANY_OF': <class 'gluon.validators.ANY_OF'>, 'Auth': <class 'gluon.tools.Auth'>, 'B': <class 'gluon.html.B'>, 'BEAUTIFY': <class 'gluon.html.BEAUTIFY'>, 'BODY': <class 'gluon.html.BODY'>, 'BR': <class 'gluon.html.BR'>, 'BUTTON': <class 'gluon.html.BUTTON'>, 'CAT': <class 'gluon.html.CAT'>, 'CENTER': <class 'gluon.html.CENTER'>, ...}"
p67
sS'ccode'
p68
S'<code object <module> at 0x10d4f35b0, file "/Use...ello/applications/Cifra/models/menu.py", line 10>'
p69
ssS'lnum'
p70
I217
sS'lines'
p71
(dp72
I212
S'    try:'
p73
sI213
S'        if isinstance(code, types.CodeType):'
p74
sI214
S'            ccode = code'
p75
sI215
S'        else:'
p76
sI216
S'            ccode = compile2(code, layer)'
p77
sI217
S'        exec ccode in environment'
p78
sI218
S'    except HTTP:'
p79
sI219
S'        raise'
p80
sI220
S'    except RestrictedError:'
p81
sI221
S'        # do not encapsulate (obfuscate) the original RestrictedError'
p82
ssS'call'
p83
S'(code=\'# -*- coding: utf-8 -*-\\n# this file is released ...ENU: _()\\n\\nif "auth" in locals(): auth.wikimenu()\\n\', environment={\'A\': <class \'gluon.html.A\'>, \'ANY_OF\': <class \'gluon.validators.ANY_OF\'>, \'Auth\': <class \'gluon.tools.Auth\'>, \'B\': <class \'gluon.html.B\'>, \'BEAUTIFY\': <class \'gluon.html.BEAUTIFY\'>, \'BODY\': <class \'gluon.html.BODY\'>, \'BR\': <class \'gluon.html.BR\'>, \'BUTTON\': <class \'gluon.html.BUTTON\'>, \'CAT\': <class \'gluon.html.CAT\'>, \'CENTER\': <class \'gluon.html.CENTER\'>, ...}, layer=\'/Users/JoaoBtte/Documents/python/Hello/applications/Cifra/models/menu.py\')'
p84
sS'func'
p85
S'restricted'
p86
sa(dp87
g62
S'/Users/JoaoBtte/Documents/python/Hello/applications/Cifra/models/menu.py'
p88
sg64
(dp89
S'_'
S'<function _>'
p90
sS'DEVELOPMENT_MENU'
p91
S'undefined'
p92
ssg70
I142
sg71
(dp93
I135
S"                        (T('Other Plugins'), False,"
p94
sI136
S"                         'http://web2py.com/plugins'),"
p95
sI137
S"                        (T('Layout Plugins'),"
p96
sI138
S"                         False, 'http://web2py.com/layouts'),"
p97
sI139
S'                        ])'
p98
sI140
S'                ]'
p99
sI141
S'         )]'
p100
sI142
S'if DEVELOPMENT_MENU: _()'
p101
sI143
S''
sI144
S'if "auth" in locals(): auth.wikimenu()'
p102
ssg83
S'()'
p103
sg85
S'<module>'
p104
sasS'pyver'
p105
S'Python 2.7.2: /usr/bin/python (prefix: /System/Library/Frameworks/Python.framework/Versions/2.7)'
p106
sS'session'
p107
g57
(S's\x8b\x08\x00\x00<div><table><tr><td style="font-weight:bold;vertical-align:top;">banda</td><td style="vertical-align:top;">:</td><td><div> Banda Eva</div></td></tr><tr><td style="font-weight:bold;vertical-align:top;">flash</td><td style="vertical-align:top;">:</td><td><div>None</div></td></tr><tr><td style="font-weight:bold;vertical-align:top;">letra</td><td style="vertical-align:top;">:</td><td><div>Tom: C\r\n\t\t\n(intro) Am7 Em7 F Fm7 (3x)\n        C Em7 F Fm7 C F G\n\n      C                           Bm7/5- G#\xc2\xba\nVerdadeira miragem do meu dia-a-dia\n       Am7\nNaufraguei nesse mar\n                    Em7\nMe salvei no seu cora\xc3\xa7\xc3\xa3o\n      Dm7                G      C  Am7\nUma estrela me guia pra ter alegria\n   Dm7\nNa rota desse amor\n  G             G7\nNavego essa paix\xc3\xa3o\n         Dm7    G         C         Am7\nNo vai-e-vem eu vou, felicidade amor\nDm7\nVem me dar calor\n      G          G7\nAmanhecer a te amar\n\n(refr\xc3\xa3o)\n C                                        Bm7/5-  G#\xc2\xba\nBeija-me como nunca fui beijada por ningu\xc3\xa9m\nAm7                      Em7\nToca-me como a pe\xc3\xa7a preciosa de cristal\nDm7            G          C     Am7\nAma-me com a for\xc3\xa7a desse amor total\n        Dm7\nDiz que sou sua menina\n         G           G7\nDiz que sou seu carnaval\n\n F                         Fm7\nJunto a sua vida com o meu amor\nEm7                   Am7\nN\xc3\xa3o tenho sa\xc3\xadda, sou sua, sou\n   Dm7         G                  C   C7\nS\xc3\xb3 quero estar contigo e ter voc\xc3\xaa aqui\nF                           Fm7\nJunto a sua vida com o meu amor\nEm7                  Am7\nN\xc3\xa3o tenho sa\xc3\xadda, sou sua, sou\n   Dm7                         G  C    F G\nS\xc3\xb3 quero estar contigo e ter voc\xc3\xaa aqui \xc3\x94\xc3\x94\xc3\x94\nC\n\xc3\x94 \xc3\xb4 \xc3\xb4 \xc3\xb4 \xc3\xb4\n  Bm7/5-     G#\xc2\xba\nAi ai ai ai ai\n    F                    Fm7      C G C\nS\xc3\xb3 quero estar contigo e ter voc\xc3\xaa aqui\n\nF                          Fm7    Am Em     F G C\nS\xc3\xb3 quero estar contigo e ter voc\xc3\xaa a...qui   e \xc3\xaa\xc3\xaa</div></td></tr><tr><td style="font-weight:bold;vertical-align:top;">name</td><td style="vertical-align:top;">:</td><td><div> Miragem </div></td></tr><tr><td style="font-weight:bold;vertical-align:top;">nome_musica</td><td style="vertical-align:top;">:</td><td><div>Miragem</div></td></tr></table></div>'
tRp108
sS'etype'
p109
S"<type 'exceptions.NameError'>"
p110
sS'date'
p111
S'Wed Oct  2 18:33:17 2013'
p112
sS'response'
p113
g57
(S's*\x19\x00\x00<div><table><tr><td style="font-weight:bold;vertical-align:top;">body</td><td style="vertical-align:top;">:</td><td><div>&lt;cStringIO.StringO object at 0x1119e6500&gt;</div></td></tr><tr><td style="font-weight:bold;vertical-align:top;">cookies</td><td style="vertical-align:top;">:</td><td><div><table></table></div></td></tr><tr><td style="font-weight:bold;vertical-align:top;">delimiters</td><td style="vertical-align:top;">:</td><td><div><table><tr><td><div>{{</div></td></tr><tr><td><div>}}</div></td></tr></table></div></td></tr><tr><td style="font-weight:bold;vertical-align:top;">files</td><td style="vertical-align:top;">:</td><td><div><table></table></div></td></tr><tr><td style="font-weight:bold;vertical-align:top;">flash</td><td style="vertical-align:top;">:</td><td><div></div></td></tr><tr><td style="font-weight:bold;vertical-align:top;">generic_patterns</td><td style="vertical-align:top;">:</td><td><div><table></table></div></td></tr><tr><td style="font-weight:bold;vertical-align:top;">google_analytics_id</td><td style="vertical-align:top;">:</td><td><div>None</div></td></tr><tr><td style="font-weight:bold;vertical-align:top;">headers</td><td style="vertical-align:top;">:</td><td><div><table><tr><td style="font-weight:bold;vertical-align:top;">X-Powered-By</td><td style="vertical-align:top;">:</td><td><div>web2py</div></td></tr></table></div></td></tr><tr><td style="font-weight:bold;vertical-align:top;">menu</td><td style="vertical-align:top;">:</td><td><div><table><tr><td><div><table><tr><td><div>Home</div></td></tr><tr><td><div>False</div></td></tr><tr><td><div>/Cifra/default/index</div></td></tr><tr><td><div><table></table></div></td></tr></table></div></td></tr><tr><td><div><table><tr><td><div>Evernote</div></td></tr><tr><td><div>True</div></td></tr><tr><td><div>/Cifra/default/index</div></td></tr><tr><td><div><table></table></div></td></tr></table></div></td></tr><tr><td><div><table><tr><td><div>PDF</div></td></tr><tr><td><div>False</div></td></tr><tr><td><div>/Cifra/default/index</div></td></tr><tr><td><div><table></table></div></td></tr></table></div></td></tr><tr><td><div><table><tr><td><div>Imprimir</div></td></tr><tr><td><div>False</div></td></tr><tr><td><div>/Cifra/default/index</div></td></tr><tr><td><div><table></table></div></td></tr></table></div></td></tr></table></div></td></tr><tr><td style="font-weight:bold;vertical-align:top;">meta</td><td style="vertical-align:top;">:</td><td><div><table><tr><td style="font-weight:bold;vertical-align:top;">author</td><td style="vertical-align:top;">:</td><td><div>Your Name &lt;you@example.com&gt;</div></td></tr><tr><td style="font-weight:bold;vertical-align:top;">description</td><td style="vertical-align:top;">:</td><td><div>a cool new app</div></td></tr><tr><td style="font-weight:bold;vertical-align:top;">generator</td><td style="vertical-align:top;">:</td><td><div>Web2py Web Framework</div></td></tr><tr><td style="font-weight:bold;vertical-align:top;">keywords</td><td style="vertical-align:top;">:</td><td><div>web2py, python, framework</div></td></tr></table></div></td></tr><tr><td style="font-weight:bold;vertical-align:top;">models_to_run</td><td style="vertical-align:top;">:</td><td><div><table><tr><td><div>^\\w+\\.py$</div></td></tr><tr><td><div>^default/\\w+\\.py$</div></td></tr><tr><td><div>^default/index/\\w+\\.py$</div></td></tr></table></div></td></tr><tr><td style="font-weight:bold;vertical-align:top;">postprocessing</td><td style="vertical-align:top;">:</td><td><div><table></table></div></td></tr><tr><td style="font-weight:bold;vertical-align:top;">session_client</td><td style="vertical-align:top;">:</td><td><div>127.0.0.1</div></td></tr><tr><td style="font-weight:bold;vertical-align:top;">session_cookie_compression_level</td><td style="vertical-align:top;">:</td><td><div>None</div></td></tr><tr><td style="font-weight:bold;vertical-align:top;">session_cookie_expires</td><td style="vertical-align:top;">:</td><td><div>None</div></td></tr><tr><td style="font-weight:bold;vertical-align:top;">session_cookie_key</td><td style="vertical-align:top;">:</td><td><div>None</div></td></tr><tr><td style="font-weight:bold;vertical-align:top;">session_data_name</td><td style="vertical-align:top;">:</td><td><div>session_data_cifra</div></td></tr><tr><td style="font-weight:bold;vertical-align:top;">session_file</td><td style="vertical-align:top;">:</td><td><div>&lt;open file &#x27;/Users/JoaoBtte/Documents/python/Hello/applications/Cifra/sessions/127.0.0.1-a5df85fe-25f5-44eb-9e4f-45b36b87130f&#x27;, mode &#x27;rb+&#x27; at 0x10d4ea0c0&gt;</div></td></tr><tr><td style="font-weight:bold;vertical-align:top;">session_filename</td><td style="vertical-align:top;">:</td><td><div>/Users/JoaoBtte/Documents/python/Hello/applications/Cifra/sessions/127.0.0.1-a5df85fe-25f5-44eb-9e4f-45b36b87130f</div></td></tr><tr><td style="font-weight:bold;vertical-align:top;">session_hash</td><td style="vertical-align:top;">:</td><td><div>5ff376a08c4786ced9d373610f50e2ed</div></td></tr><tr><td style="font-weight:bold;vertical-align:top;">session_id</td><td style="vertical-align:top;">:</td><td><div>127.0.0.1-a5df85fe-25f5-44eb-9e4f-45b36b87130f</div></td></tr><tr><td style="font-weight:bold;vertical-align:top;">session_id_name</td><td style="vertical-align:top;">:</td><td><div>session_id_cifra</div></td></tr><tr><td style="font-weight:bold;vertical-align:top;">session_locked</td><td style="vertical-align:top;">:</td><td><div>True</div></td></tr><tr><td style="font-weight:bold;vertical-align:top;">session_masterapp</td><td style="vertical-align:top;">:</td><td><div>Cifra</div></td></tr><tr><td style="font-weight:bold;vertical-align:top;">session_new</td><td style="vertical-align:top;">:</td><td><div>False</div></td></tr><tr><td style="font-weight:bold;vertical-align:top;">session_storage_type</td><td style="vertical-align:top;">:</td><td><div>file</div></td></tr><tr><td style="font-weight:bold;vertical-align:top;">status</td><td style="vertical-align:top;">:</td><td><div>200</div></td></tr><tr><td style="font-weight:bold;vertical-align:top;">subtitle</td><td style="vertical-align:top;">:</td><td><div></div></td></tr><tr><td style="font-weight:bold;vertical-align:top;">title</td><td style="vertical-align:top;">:</td><td><div>Cifra</div></td></tr><tr><td style="font-weight:bold;vertical-align:top;">view</td><td style="vertical-align:top;">:</td><td><div>default/index.html</div></td></tr></table></div>'
tRp114
sS'locals'
p115
(dp116
S'OBJECT'
p117
S"<class 'gluon.html.OBJECT'>"
p118
sS'SQLDB'
p119
S"<class 'gluon.dal.DAL'>"
p120
sg107
S"<Storage {'letra': 'Tom: C\\r\\n\\t\\t\\n(intro) Am7 ...login]': '62737c3d-40fa-4a4e-974a-411a6e9c840a'}>"
p121
sS'LINK'
p122
S"<class 'gluon.html.LINK'>"
p123
sS'BR'
p124
S"<class 'gluon.html.BR'>"
p125
sS'local_import'
p126
S'<function <lambda>>'
p127
sS'OPTGROUP'
p128
S"<class 'gluon.html.OPTGROUP'>"
p129
sS'__package__'
p130
S'None'
p131
sS'PRE'
p132
S"<class 'gluon.html.PRE'>"
p133
sS'IS_INT_IN_RANGE'
p134
S"<class 'gluon.validators.IS_INT_IN_RANGE'>"
p135
sS'IS_LOWER'
p136
S"<class 'gluon.validators.IS_LOWER'>"
p137
sS'IS_STRONG'
p138
S"<class 'gluon.validators.IS_STRONG'>"
p139
sS'cache'
p140
S'<gluon.cache.Cache object>'
p141
sS'IS_IN_DB'
p142
S"<class 'gluon.validators.IS_IN_DB'>"
p143
sS'TAG'
p144
S'<gluon.html.__TAG__ object>'
p145
sS'SQLField'
p146
S"<class 'gluon.dal.Field'>"
p147
sS'BODY'
p148
S"<class 'gluon.html.BODY'>"
p149
sS'IS_DATE_IN_RANGE'
p150
S"<class 'gluon.validators.IS_DATE_IN_RANGE'>"
p151
sS'TH'
p152
S"<class 'gluon.html.TH'>"
p153
sS'URL'
p154
S'<function URL>'
p155
sS'__file__'
p156
S"'/Users/JoaoBtte/Documents/python/Hello/applications/Cifra/models/menu.py'"
p157
sS'db'
p158
S'<DAL uri="sqlite://storage.db">'
p159
sS'auth'
p160
S'<gluon.tools.Auth object>'
p161
sS'P'
S"<class 'gluon.html.P'>"
p162
sS'TFOOT'
p163
S"<class 'gluon.html.TFOOT'>"
p164
sS'XHTML'
p165
S"<class 'gluon.html.XHTML'>"
p166
sS'ON'
p167
S'True'
p168
sS'OL'
p169
S"<class 'gluon.html.OL'>"
p170
sS'TEXTAREA'
p171
S"<class 'gluon.html.TEXTAREA'>"
p172
sS'MENU'
p173
S"<class 'gluon.html.MENU'>"
p174
sS'LOAD'
p175
S'<function LOAD>'
p176
sS'CODE'
p177
S"<class 'gluon.html.CODE'>"
p178
sS'HTTP'
p179
S"<class 'gluon.http.HTTP'>"
p180
sS'HR'
p181
S"<class 'gluon.html.HR'>"
p182
sS'IS_DATETIME'
p183
S"<class 'gluon.validators.IS_DATETIME'>"
p184
sS'HEAD'
p185
S"<class 'gluon.html.HEAD'>"
p186
sS'LABEL'
p187
S"<class 'gluon.html.LABEL'>"
p188
sS'CLEANUP'
p189
S"<class 'gluon.validators.CLEANUP'>"
p190
sS'SELECT'
p191
S"<class 'gluon.html.SELECT'>"
p192
sS'CENTER'
p193
S"<class 'gluon.html.CENTER'>"
p194
sS'Auth'
p195
S"<class 'gluon.tools.Auth'>"
p196
sS'__builtins__'
p197
S"{'ArithmeticError': <type 'exceptions.ArithmeticError'>, 'AssertionError': <type 'exceptions.AssertionError'>, 'AttributeError': <type 'exceptions.AttributeError'>, 'BaseException': <type 'exceptions.BaseException'>, 'BufferError': <type 'exceptions.BufferError'>, 'BytesWarning': <type 'exceptions.BytesWarning'>, 'DeprecationWarning': <type 'exceptions.DeprecationWarning'>, 'EOFError': <type 'exceptions.EOFError'>, 'Ellipsis': Ellipsis, 'EnvironmentError': <type 'exceptions.EnvironmentError'>, ...}"
p198
sS'HTML'
p199
S"<class 'gluon.html.HTML'>"
p200
sS'SQLFORM'
p201
S"<class 'gluon.sqlhtml.SQLFORM'>"
p202
sS'EM'
p203
S"<class 'gluon.html.EM'>"
p204
sS'redirect'
p205
S'<function redirect>'
p206
sS'FIELDSET'
p207
S"<class 'gluon.html.FIELDSET'>"
p208
sS'IS_EQUAL_TO'
p209
S"<class 'gluon.validators.IS_EQUAL_TO'>"
p210
sS'embed64'
p211
S'<function embed64>'
p212
sS'IS_LIST_OF'
p213
S"<class 'gluon.validators.IS_LIST_OF'>"
p214
sS'__name__'
p215
S"'__restricted__'"
p216
sS'EMBED'
p217
S"<class 'gluon.html.EMBED'>"
p218
sS'_'
S'<function _>'
p219
sS'FORM'
p220
S"<class 'gluon.html.FORM'>"
p221
sS'H2'
p222
S"<class 'gluon.html.H2'>"
p223
sS'H3'
p224
S"<class 'gluon.html.H3'>"
p225
sS'BUTTON'
p226
S"<class 'gluon.html.BUTTON'>"
p227
sS'H1'
p228
S"<class 'gluon.html.H1'>"
p229
sS'H6'
p230
S"<class 'gluon.html.H6'>"
p231
sS'H4'
p232
S"<class 'gluon.html.H4'>"
p233
sS'H5'
p234
S"<class 'gluon.html.H5'>"
p235
sS'UL'
p236
S"<class 'gluon.html.UL'>"
p237
sS'IS_UPPER'
p238
S"<class 'gluon.validators.IS_UPPER'>"
p239
sS'xmlescape'
p240
S'<function xmlescape>'
p241
sS'IS_TIME'
p242
S"<class 'gluon.validators.IS_TIME'>"
p243
sS'OPTION'
p244
S"<class 'gluon.html.OPTION'>"
p245
sS'TITLE'
p246
S"<class 'gluon.html.TITLE'>"
p247
sS'CRYPT'
p248
S"<class 'gluon.validators.CRYPT'>"
p249
sS'IS_EMPTY_OR'
p250
S"<class 'gluon.validators.IS_EMPTY_OR'>"
p251
sS'MARKMIN'
p252
S"<class 'gluon.html.MARKMIN'>"
p253
sS'INPUT'
p254
S"<class 'gluon.html.INPUT'>"
p255
sS'STRONG'
p256
S"<class 'gluon.html.STRONG'>"
p257
sS'COL'
p258
S"<class 'gluon.html.COL'>"
p259
sS'SCRIPT'
p260
S"<class 'gluon.html.SCRIPT'>"
p261
sS'TABLE'
p262
S"<class 'gluon.html.TABLE'>"
p263
sS'IS_IPV4'
p264
S"<class 'gluon.validators.IS_IPV4'>"
p265
sS'IS_LENGTH'
p266
S"<class 'gluon.validators.IS_LENGTH'>"
p267
sS'IS_IPV6'
p268
S"<class 'gluon.validators.IS_IPV6'>"
p269
sS'XML'
p270
S"<class 'gluon.html.XML'>"
p271
sS'B'
S"<class 'gluon.html.B'>"
p272
sS'IMG'
p273
S"<class 'gluon.html.IMG'>"
p274
sS'SQLTABLE'
p275
S"<class 'gluon.sqlhtml.SQLTABLE'>"
p276
sS'IS_MATCH'
p277
S"<class 'gluon.validators.IS_MATCH'>"
p278
sS'IS_ALPHANUMERIC'
p279
S"<class 'gluon.validators.IS_ALPHANUMERIC'>"
p280
sS'SPAN'
p281
S"<class 'gluon.html.SPAN'>"
p282
sS'IS_JSON'
p283
S"<class 'gluon.validators.IS_JSON'>"
p284
sS'IS_IPADDRESS'
p285
S"<class 'gluon.validators.IS_IPADDRESS'>"
p286
sS'IS_SLUG'
p287
S"<class 'gluon.validators.IS_SLUG'>"
p288
sS'BEAUTIFY'
p289
S"<class 'gluon.html.BEAUTIFY'>"
p290
sS'META'
p291
S"<class 'gluon.html.META'>"
p292
sS'IS_DATE'
p293
S"<class 'gluon.validators.IS_DATE'>"
p294
sS'IS_EMAIL'
p295
S"<class 'gluon.validators.IS_EMAIL'>"
p296
sS'IS_NOT_EMPTY'
p297
S"<class 'gluon.validators.IS_NOT_EMPTY'>"
p298
sS'IS_FLOAT_IN_RANGE'
p299
S"<class 'gluon.validators.IS_FLOAT_IN_RANGE'>"
p300
sS'TBODY'
p301
S"<class 'gluon.html.TBODY'>"
p302
sS'CAT'
p303
S"<class 'gluon.html.CAT'>"
p304
sS'Field'
p305
S"<class 'gluon.dal.Field'>"
p306
sS'DIV'
p307
S"<class 'gluon.html.DIV'>"
p308
sS'LEGEND'
p309
S"<class 'gluon.html.LEGEND'>"
p310
sS'COLGROUP'
p311
S"<class 'gluon.html.COLGROUP'>"
p312
sS'DAL'
p313
S"<class 'gluon.dal.DAL'>"
p314
sS'TT'
p315
S"<class 'gluon.html.TT'>"
p316
sS'TR'
p317
S"<class 'gluon.html.TR'>"
p318
sS'LI'
p319
S"<class 'gluon.html.LI'>"
p320
sS'IFRAME'
p321
S"<class 'gluon.html.IFRAME'>"
p322
sS'TD'
p323
S"<class 'gluon.html.TD'>"
p324
sS'IS_URL'
p325
S"<class 'gluon.validators.IS_URL'>"
p326
sS'A'
S"<class 'gluon.html.A'>"
p327
sS'STYLE'
p328
S"<class 'gluon.html.STYLE'>"
p329
sS'IS_DATETIME_IN_RANGE'
p330
S"<class 'gluon.validators.IS_DATETIME_IN_RANGE'>"
p331
sS'IS_IMAGE'
p332
S"<class 'gluon.validators.IS_IMAGE'>"
p333
sS'I'
S"<class 'gluon.html.I'>"
p334
sS'IS_NOT_IN_DB'
p335
S"<class 'gluon.validators.IS_NOT_IN_DB'>"
p336
sg113
S"<Storage {'body': <cStringIO.StringO object at 0...> at 0x1117e85f0>, 'view': 'default/index.html'}>"
p337
sS'THEAD'
p338
S"<class 'gluon.html.THEAD'>"
p339
sS'ANY_OF'
p340
S"<class 'gluon.validators.ANY_OF'>"
p341
sS'IS_NULL_OR'
p342
S"<class 'gluon.validators.IS_EMPTY_OR'>"
p343
sg56
S"<Storage {'_vars': <Storage {}>, 'function': 'in...tte/Documents/python/Hello/applications/Cifra/'}>"
p344
sS'IS_EXPR'
p345
S"<class 'gluon.validators.IS_EXPR'>"
p346
sS'IS_IN_SET'
p347
S"<class 'gluon.validators.IS_IN_SET'>"
p348
sS'IS_UPLOAD_FILENAME'
p349
S"<class 'gluon.validators.IS_UPLOAD_FILENAME'>"
p350
sS'IS_DECIMAL_IN_RANGE'
p351
S"<class 'gluon.validators.IS_DECIMAL_IN_RANGE'>"
p352
sS'T'
S'<gluon.languages.translator object>'
p353
sssS'traceback'
p354
S'Traceback (most recent call last):\n  File "/Users/JoaoBtte/Documents/python/Hello/gluon/restricted.py", line 217, in restricted\n    exec ccode in environment\n  File "/Users/JoaoBtte/Documents/python/Hello/applications/Cifra/models/menu.py", line 142, in <module>\n    if DEVELOPMENT_MENU: _()\nNameError: name \'DEVELOPMENT_MENU\' is not defined\n'
p355
s.