(dp1
S'output'
p2
S"<type 'exceptions.NameError'> name 'a' is not defined"
p3
sS'layer'
p4
S'/Users/JoaoBtte/Documents/python/Hello/applications/admin/controllers/shell.py'
p5
sS'code'
p6
S"import sys\nimport cStringIO\nimport gluon.contrib.shell\nimport code\nimport thread\nfrom gluon.shell import env\n\nif DEMO_MODE or MULTI_USER_MODE:\n    session.flash = T('disabled in demo mode')\n    redirect(URL('default', 'site'))\n\nFE = 10 ** 9\n\n\ndef index():\n    app = request.args(0) or 'admin'\n    reset()\n    return dict(app=app)\n\n\ndef callback():\n    app = request.args[0]\n    command = request.vars.statement\n    escape = command[:1] != '!'\n    history = session['history:' + app] = session.get(\n        'history:' + app, gluon.contrib.shell.History())\n    if not escape:\n        command = command[1:]\n    if command == '%reset':\n        reset()\n        return '*** reset ***'\n    elif command[0] == '%':\n        try:\n            command = session['commands:' + app][int(command[1:])]\n        except ValueError:\n            return ''\n    session['commands:' + app].append(command)\n    environ = env(app, True, extra_request=dict(is_https=request.is_https))\n    output = gluon.contrib.shell.run(history, command, environ)\n    k = len(session['commands:' + app]) - 1\n    #output = PRE(output)\n    #return TABLE(TR('In[%i]:'%k,PRE(command)),TR('Out[%i]:'%k,output))\n    return 'In [%i] : %s%s\\n' % (k + 1, command, output)\n\n\ndef reset():\n    app = request.args(0) or 'admin'\n    session['commands:' + app] = []\n    session['history:' + app] = gluon.contrib.shell.History()\n    return 'done'\n\nresponse._vars=response._caller(callback)\n"
p7
sS'snapshot'
p8
(dp9
S'exception'
p10
(dp11
S'__hash__'
p12
S"<method-wrapper '__hash__' of exceptions.NameError object>"
p13
sS'__setattr__'
p14
S"<method-wrapper '__setattr__' of exceptions.NameError object>"
p15
sS'__reduce_ex__'
p16
S'<built-in method __reduce_ex__ of exceptions.NameError object>'
p17
sS'__getslice__'
p18
S"<method-wrapper '__getslice__' of exceptions.NameError object>"
p19
sS'__getitem__'
p20
S"<method-wrapper '__getitem__' of exceptions.NameError object>"
p21
sS'__setstate__'
p22
S'<built-in method __setstate__ of exceptions.NameError object>'
p23
sS'args'
p24
S'("name \'a\' is not defined",)'
p25
sS'__reduce__'
p26
S'<built-in method __reduce__ of exceptions.NameError object>'
p27
sS'__str__'
p28
S"<method-wrapper '__str__' of exceptions.NameError object>"
p29
sS'__format__'
p30
S'<built-in method __format__ of exceptions.NameError object>'
p31
sS'__getattribute__'
p32
S"<method-wrapper '__getattribute__' of exceptions.NameError object>"
p33
sS'__class__'
p34
S"<type 'exceptions.NameError'>"
p35
sS'__unicode__'
p36
S'<built-in method __unicode__ of exceptions.NameError object>'
p37
sS'__delattr__'
p38
S"<method-wrapper '__delattr__' of exceptions.NameError object>"
p39
sS'__subclasshook__'
p40
S'<built-in method __subclasshook__ of type object>'
p41
sS'__repr__'
p42
S"<method-wrapper '__repr__' of exceptions.NameError object>"
p43
sS'__dict__'
p44
S'{}'
p45
sS'__sizeof__'
p46
S'<built-in method __sizeof__ of exceptions.NameError object>'
p47
sS'__doc__'
p48
S"'Name not found globally.'"
p49
sS'__init__'
p50
S"<method-wrapper '__init__' of exceptions.NameError object>"
p51
sS'__new__'
p52
S'<built-in method __new__ of type object>'
p53
ssS'evalue'
p54
S"name 'a' is not defined"
p55
sS'request'
p56
cgluon.html
XML_unpickle
p57
(S's\x82c\x00\x00<div><table><tr><td style="font-weight:bold;vertical-align:top;">ajax</td><td style="vertical-align:top;">:</td><td><div>True</div></td></tr><tr><td style="font-weight:bold;vertical-align:top;">application</td><td style="vertical-align:top;">:</td><td><div>admin</div></td></tr><tr><td style="font-weight:bold;vertical-align:top;">args</td><td style="vertical-align:top;">:</td><td><div><table><tr><td><div>Cifra</div></td></tr></table></div></td></tr><tr><td style="font-weight:bold;vertical-align:top;">cid</td><td style="vertical-align:top;">:</td><td><div>None</div></td></tr><tr><td style="font-weight:bold;vertical-align:top;">client</td><td style="vertical-align:top;">:</td><td><div>127.0.0.1</div></td></tr><tr><td style="font-weight:bold;vertical-align:top;">controller</td><td style="vertical-align:top;">:</td><td><div>shell</div></td></tr><tr><td style="font-weight:bold;vertical-align:top;">cookies</td><td style="vertical-align:top;">:</td><td><div><table><tr><td style="font-weight:bold;vertical-align:top;">session_id_admin</td><td style="vertical-align:top;">:</td><td><div>127.0.0.1-4274dca4-1eac-4efb-b963-f405572e84d7<table><tr><td style="font-weight:bold;vertical-align:top;">comment</td><td style="vertical-align:top;">:</td><td><div></div></td></tr><tr><td style="font-weight:bold;vertical-align:top;">domain</td><td style="vertical-align:top;">:</td><td><div></div></td></tr><tr><td style="font-weight:bold;vertical-align:top;">expires</td><td style="vertical-align:top;">:</td><td><div></div></td></tr><tr><td style="font-weight:bold;vertical-align:top;">httponly</td><td style="vertical-align:top;">:</td><td><div></div></td></tr><tr><td style="font-weight:bold;vertical-align:top;">max-age</td><td style="vertical-align:top;">:</td><td><div></div></td></tr><tr><td style="font-weight:bold;vertical-align:top;">path</td><td style="vertical-align:top;">:</td><td><div></div></td></tr><tr><td style="font-weight:bold;vertical-align:top;">secure</td><td style="vertical-align:top;">:</td><td><div></div></td></tr><tr><td style="font-weight:bold;vertical-align:top;">version</td><td style="vertical-align:top;">:</td><td><div></div></td></tr></table></div></td></tr><tr><td style="font-weight:bold;vertical-align:top;">session_id_cifra</td><td style="vertical-align:top;">:</td><td><div>127.0.0.1-d107fe7e-5827-43f8-8fac-0f99228e14f9<table><tr><td style="font-weight:bold;vertical-align:top;">comment</td><td style="vertical-align:top;">:</td><td><div></div></td></tr><tr><td style="font-weight:bold;vertical-align:top;">domain</td><td style="vertical-align:top;">:</td><td><div></div></td></tr><tr><td style="font-weight:bold;vertical-align:top;">expires</td><td style="vertical-align:top;">:</td><td><div></div></td></tr><tr><td style="font-weight:bold;vertical-align:top;">httponly</td><td style="vertical-align:top;">:</td><td><div></div></td></tr><tr><td style="font-weight:bold;vertical-align:top;">max-age</td><td style="vertical-align:top;">:</td><td><div></div></td></tr><tr><td style="font-weight:bold;vertical-align:top;">path</td><td style="vertical-align:top;">:</td><td><div></div></td></tr><tr><td style="font-weight:bold;vertical-align:top;">secure</td><td style="vertical-align:top;">:</td><td><div></div></td></tr><tr><td style="font-weight:bold;vertical-align:top;">version</td><td style="vertical-align:top;">:</td><td><div></div></td></tr></table></div></td></tr><tr><td style="font-weight:bold;vertical-align:top;">session_id_welcome</td><td style="vertical-align:top;">:</td><td><div>127.0.0.1-d3b98bee-3c8d-49a8-b6e4-e18c612d201a<table><tr><td style="font-weight:bold;vertical-align:top;">comment</td><td style="vertical-align:top;">:</td><td><div></div></td></tr><tr><td style="font-weight:bold;vertical-align:top;">domain</td><td style="vertical-align:top;">:</td><td><div></div></td></tr><tr><td style="font-weight:bold;vertical-align:top;">expires</td><td style="vertical-align:top;">:</td><td><div></div></td></tr><tr><td style="font-weight:bold;vertical-align:top;">httponly</td><td style="vertical-align:top;">:</td><td><div></div></td></tr><tr><td style="font-weight:bold;vertical-align:top;">max-age</td><td style="vertical-align:top;">:</td><td><div></div></td></tr><tr><td style="font-weight:bold;vertical-align:top;">path</td><td style="vertical-align:top;">:</td><td><div></div></td></tr><tr><td style="font-weight:bold;vertical-align:top;">secure</td><td style="vertical-align:top;">:</td><td><div></div></td></tr><tr><td style="font-weight:bold;vertical-align:top;">version</td><td style="vertical-align:top;">:</td><td><div></div></td></tr></table></div></td></tr></table></div></td></tr><tr><td style="font-weight:bold;vertical-align:top;">env</td><td style="vertical-align:top;">:</td><td><div><table><tr><td style="font-weight:bold;vertical-align:top;">CONTENT_LENGTH</td><td style="vertical-align:top;">:</td><td><div>35</div></td></tr><tr><td style="font-weight:bold;vertical-align:top;">CONTENT_TYPE</td><td style="vertical-align:top;">:</td><td><div>application/x-www-form-urlencoded; charset=UTF-8</div></td></tr><tr><td style="font-weight:bold;vertical-align:top;">HTTP_ACCEPT</td><td style="vertical-align:top;">:</td><td><div>*/*</div></td></tr><tr><td style="font-weight:bold;vertical-align:top;">HTTP_ACCEPT_ENCODING</td><td style="vertical-align:top;">:</td><td><div>gzip,deflate,sdch</div></td></tr><tr><td style="font-weight:bold;vertical-align:top;">HTTP_ACCEPT_LANGUAGE</td><td style="vertical-align:top;">:</td><td><div>pt-BR,pt;q=0.8,en-US;q=0.6,en;q=0.4</div></td></tr><tr><td style="font-weight:bold;vertical-align:top;">HTTP_CONNECTION</td><td style="vertical-align:top;">:</td><td><div>keep-alive</div></td></tr><tr><td style="font-weight:bold;vertical-align:top;">HTTP_CONTENT_LENGTH</td><td style="vertical-align:top;">:</td><td><div>35</div></td></tr><tr><td style="font-weight:bold;vertical-align:top;">HTTP_CONTENT_TYPE</td><td style="vertical-align:top;">:</td><td><div>application/x-www-form-urlencoded; charset=UTF-8</div></td></tr><tr><td style="font-weight:bold;vertical-align:top;">HTTP_COOKIE</td><td style="vertical-align:top;">:</td><td><div>session_id_welcome=127.0.0.1-d3b98bee-3c8d-49a8-b6e4-e18c612d201a; session_id_cifra=127.0.0.1-d107fe7e-5827-43f8-8fac-0f99228e14f9; session_id_admin=127.0.0.1-4274dca4-1eac-4efb-b963-f405572e84d7</div></td></tr><tr><td style="font-weight:bold;vertical-align:top;">HTTP_HOST</td><td style="vertical-align:top;">:</td><td><div>127.0.0.1:8000</div></td></tr><tr><td style="font-weight:bold;vertical-align:top;">HTTP_ORIGIN</td><td style="vertical-align:top;">:</td><td><div>http://127.0.0.1:8000</div></td></tr><tr><td style="font-weight:bold;vertical-align:top;">HTTP_REFERER</td><td style="vertical-align:top;">:</td><td><div>http://127.0.0.1:8000/admin/shell/index/Cifra</div></td></tr><tr><td style="font-weight:bold;vertical-align:top;">HTTP_USER_AGENT</td><td style="vertical-align:top;">:</td><td><div>Mozilla/5.0 (Macintosh; Intel Mac OS X 10_8_4) AppleWebKit/537.36 (KHTML, like Gecko) Chrome/29.0.1547.65 Safari/537.36</div></td></tr><tr><td style="font-weight:bold;vertical-align:top;">HTTP_X_REQUESTED_WITH</td><td style="vertical-align:top;">:</td><td><div>XMLHttpRequest</div></td></tr><tr><td style="font-weight:bold;vertical-align:top;">PATH_INFO</td><td style="vertical-align:top;">:</td><td><div>/admin/shell/callback/Cifra</div></td></tr><tr><td style="font-weight:bold;vertical-align:top;">QUERY_STRING</td><td style="vertical-align:top;">:</td><td><div></div></td></tr><tr><td style="font-weight:bold;vertical-align:top;">REMOTE_ADDR</td><td style="vertical-align:top;">:</td><td><div>127.0.0.1</div></td></tr><tr><td style="font-weight:bold;vertical-align:top;">REMOTE_PORT</td><td style="vertical-align:top;">:</td><td><div>59056</div></td></tr><tr><td style="font-weight:bold;vertical-align:top;">REQUEST_METHOD</td><td style="vertical-align:top;">:</td><td><div>POST</div></td></tr><tr><td style="font-weight:bold;vertical-align:top;">SCRIPT_NAME</td><td style="vertical-align:top;">:</td><td><div></div></td></tr><tr><td style="font-weight:bold;vertical-align:top;">SERVER_NAME</td><td style="vertical-align:top;">:</td><td><div>MacBook-Pro-de-Joao.local</div></td></tr><tr><td style="font-weight:bold;vertical-align:top;">SERVER_PORT</td><td style="vertical-align:top;">:</td><td><div>8000</div></td></tr><tr><td style="font-weight:bold;vertical-align:top;">SERVER_PROTOCOL</td><td style="vertical-align:top;">:</td><td><div>HTTP/1.1</div></td></tr><tr><td style="font-weight:bold;vertical-align:top;">SERVER_SOFTWARE</td><td style="vertical-align:top;">:</td><td><div>Rocket 1.2.6</div></td></tr><tr><td style="font-weight:bold;vertical-align:top;">app_folders</td><td style="vertical-align:top;">:</td><td><div>set([&#x27;/Users/JoaoBtte/Documents/python/Hello/applications/admin/&#x27;, &#x27;/Users/JoaoBtte/Documents/python/Hello/applications/welcome/&#x27;, &#x27;/Users/JoaoBtte/Documents/python/Hello/applications/Cifra/&#x27;])</div></td></tr><tr><td style="font-weight:bold;vertical-align:top;">applications_parent</td><td style="vertical-align:top;">:</td><td><div>/Users/JoaoBtte/Documents/python/Hello</div></td></tr><tr><td style="font-weight:bold;vertical-align:top;">cmd_args</td><td style="vertical-align:top;">:</td><td><div><table></table></div></td></tr><tr><td style="font-weight:bold;vertical-align:top;">cmd_options</td><td style="vertical-align:top;">:</td><td><div>&lt;Values at 0x1044cda28: {&#x27;verbose&#x27;: False, &#x27;ip&#x27;: &#x27;127.0.0.1&#x27;, &#x27;debuglevel&#x27;: 30, &#x27;with_scheduler&#x27;: False, &#x27;ips&#x27;: [&#x27;fe80::22c9:d0ff:fed9:645f%en1&#x27;, &#x27;192.168.0.22&#x27;], &#x27;shutdown_timeout&#x27;: 5, &#x27;taskbar&#x27;: False, &#x27;with_coverage&#x27;: False, &#x27;port&#x27;: 8000, &#x27;maxthreads&#x27;: None, &#x27;softcron&#x27;: False, &#x27;server_name&#x27;: &#x27;MacBook-Pro-de-Joao.local&#x27;, &#x27;bpython&#x27;: False, &#x27;nogui&#x27;: False, &#x27;pid_filename&#x27;: &#x27;httpserver.pid&#x27;, &#x27;extcron&#x27;: False, &#x27;runcron&#x27;: False, &#x27;run_system_tests&#x27;: False, &#x27;test&#x27;: None, &#x27;folder&#x27;: &#x27;/Users/JoaoBtte/Documents/python/Hello&#x27;, &#x27;config&#x27;: &#x27;&#x27;, &#x27;minthreads&#x27;: None, &#x27;winservice&#x27;: &#x27;&#x27;, &#x27;shell&#x27;: None, &#x27;run&#x27;: &#x27;&#x27;, &#x27;log_filename&#x27;: &#x27;httpserver.log&#x27;, &#x27;profiler_dir&#x27;: None, &#x27;args&#x27;: [&#x27;&#x27;], &#x27;socket_timeout&#x27;: 5, &#x27;ssl_ca_certificate&#x27;: None, &#x27;scheduler&#x27;: None, &#x27;interfaces&#x27;: None, &#x27;ssl_private_key&#x27;: &#x27;&#x27;, &#x27;scheduler_groups&#x27;: None, &#x27;password&#x27;: &#x27;&lt;ask&gt;&#x27;, &#x27;request_queue_size&#x27;: 5, &#x27;ssl_certificate&#x27;: &#x27;&#x27;, &#x27;cronjob&#x27;: False, &#x27;numthreads&#x27;: None, &#x27;quiet&#x27;: False, &#x27;import_models&#x27;: False, &#x27;timeout&#x27;: 10, &#x27;plain&#x27;: False, &#x27;nobanner&#x27;: False}&gt;</div></td></tr><tr><td style="font-weight:bold;vertical-align:top;">content_length</td><td style="vertical-align:top;">:</td><td><div>35</div></td></tr><tr><td style="font-weight:bold;vertical-align:top;">content_type</td><td style="vertical-align:top;">:</td><td><div>application/x-www-form-urlencoded; charset=UTF-8</div></td></tr><tr><td style="font-weight:bold;vertical-align:top;">db_sessions</td><td style="vertical-align:top;">:</td><td><div>set([])</div></td></tr><tr><td style="font-weight:bold;vertical-align:top;">debugging</td><td style="vertical-align:top;">:</td><td><div>True</div></td></tr><tr><td style="font-weight:bold;vertical-align:top;">gluon_parent</td><td style="vertical-align:top;">:</td><td><div>/Users/JoaoBtte/Documents/python/Hello</div></td></tr><tr><td style="font-weight:bold;vertical-align:top;">http_accept</td><td style="vertical-align:top;">:</td><td><div>*/*</div></td></tr><tr><td style="font-weight:bold;vertical-align:top;">http_accept_encoding</td><td style="vertical-align:top;">:</td><td><div>gzip,deflate,sdch</div></td></tr><tr><td style="font-weight:bold;vertical-align:top;">http_accept_language</td><td style="vertical-align:top;">:</td><td><div>pt-BR,pt;q=0.8,en-US;q=0.6,en;q=0.4</div></td></tr><tr><td style="font-weight:bold;vertical-align:top;">http_connection</td><td style="vertical-align:top;">:</td><td><div>keep-alive</div></td></tr><tr><td style="font-weight:bold;vertical-align:top;">http_content_length</td><td style="vertical-align:top;">:</td><td><div>35</div></td></tr><tr><td style="font-weight:bold;vertical-align:top;">http_content_type</td><td style="vertical-align:top;">:</td><td><div>application/x-www-form-urlencoded; charset=UTF-8</div></td></tr><tr><td style="font-weight:bold;vertical-align:top;">http_cookie</td><td style="vertical-align:top;">:</td><td><div>session_id_welcome=127.0.0.1-d3b98bee-3c8d-49a8-b6e4-e18c612d201a; session_id_cifra=127.0.0.1-d107fe7e-5827-43f8-8fac-0f99228e14f9; session_id_admin=127.0.0.1-4274dca4-1eac-4efb-b963-f405572e84d7</div></td></tr><tr><td style="font-weight:bold;vertical-align:top;">http_host</td><td style="vertical-align:top;">:</td><td><div>127.0.0.1:8000</div></td></tr><tr><td style="font-weight:bold;vertical-align:top;">http_origin</td><td style="vertical-align:top;">:</td><td><div>http://127.0.0.1:8000</div></td></tr><tr><td style="font-weight:bold;vertical-align:top;">http_referer</td><td style="vertical-align:top;">:</td><td><div>http://127.0.0.1:8000/admin/shell/index/Cifra</div></td></tr><tr><td style="font-weight:bold;vertical-align:top;">http_user_agent</td><td style="vertical-align:top;">:</td><td><div>Mozilla/5.0 (Macintosh; Intel Mac OS X 10_8_4) AppleWebKit/537.36 (KHTML, like Gecko) Chrome/29.0.1547.65 Safari/537.36</div></td></tr><tr><td style="font-weight:bold;vertical-align:top;">http_x_requested_with</td><td style="vertical-align:top;">:</td><td><div>XMLHttpRequest</div></td></tr><tr><td style="font-weight:bold;vertical-align:top;">is_jython</td><td style="vertical-align:top;">:</td><td><div>False</div></td></tr><tr><td style="font-weight:bold;vertical-align:top;">is_pypy</td><td style="vertical-align:top;">:</td><td><div>False</div></td></tr><tr><td style="font-weight:bold;vertical-align:top;">is_source</td><td style="vertical-align:top;">:</td><td><div>True</div></td></tr><tr><td style="font-weight:bold;vertical-align:top;">local_hosts</td><td style="vertical-align:top;">:</td><td><div><table><tr><td><div>fe80::22c9:d0ff:fed9:645f%en1</div></td></tr><tr><td><div>::ffff:127.0.0.1</div></td></tr><tr><td><div>::1</div></td></tr><tr><td><div>192.168.0.22</div></td></tr><tr><td><div>MacBook-Pro-de-Joao.local</div></td></tr><tr><td><div>127.0.0.1</div></td></tr></table></div></td></tr><tr><td style="font-weight:bold;vertical-align:top;">path_info</td><td style="vertical-align:top;">:</td><td><div>/admin/shell/callback/Cifra</div></td></tr><tr><td style="font-weight:bold;vertical-align:top;">query_string</td><td style="vertical-align:top;">:</td><td><div></div></td></tr><tr><td style="font-weight:bold;vertical-align:top;">remote_addr</td><td style="vertical-align:top;">:</td><td><div>127.0.0.1</div></td></tr><tr><td style="font-weight:bold;vertical-align:top;">remote_port</td><td style="vertical-align:top;">:</td><td><div>59056</div></td></tr><tr><td style="font-weight:bold;vertical-align:top;">request_method</td><td style="vertical-align:top;">:</td><td><div>POST</div></td></tr><tr><td style="font-weight:bold;vertical-align:top;">request_uri</td><td style="vertical-align:top;">:</td><td><div>/admin/shell/callback/Cifra</div></td></tr><tr><td style="font-weight:bold;vertical-align:top;">script_name</td><td style="vertical-align:top;">:</td><td><div></div></td></tr><tr><td style="font-weight:bold;vertical-align:top;">server_name</td><td style="vertical-align:top;">:</td><td><div>MacBook-Pro-de-Joao.local</div></td></tr><tr><td style="font-weight:bold;vertical-align:top;">server_port</td><td style="vertical-align:top;">:</td><td><div>8000</div></td></tr><tr><td style="font-weight:bold;vertical-align:top;">server_protocol</td><td style="vertical-align:top;">:</td><td><div>HTTP/1.1</div></td></tr><tr><td style="font-weight:bold;vertical-align:top;">server_software</td><td style="vertical-align:top;">:</td><td><div>Rocket 1.2.6</div></td></tr><tr><td style="font-weight:bold;vertical-align:top;">web2py_path</td><td style="vertical-align:top;">:</td><td><div>/Users/JoaoBtte/Documents/python/Hello</div></td></tr><tr><td style="font-weight:bold;vertical-align:top;">web2py_version</td><td style="vertical-align:top;">:</td><td><div>2.6.2-stable+timestamp.2013.09.13.22.53.04</div></td></tr><tr><td style="font-weight:bold;vertical-align:top;">wsgi.errors</td><td style="vertical-align:top;">:</td><td><div>&lt;open file &#x27;&lt;stderr&gt;&#x27;, mode &#x27;w&#x27; at 0x103977270&gt;</div></td></tr><tr><td style="font-weight:bold;vertical-align:top;">wsgi.file_wrapper</td><td style="vertical-align:top;">:</td><td><div>&lt;class wsgiref.util.FileWrapper at 0x104904328&gt;</div></td></tr><tr><td style="font-weight:bold;vertical-align:top;">wsgi.input</td><td style="vertical-align:top;">:</td><td><div>&lt;socket._fileobject object at 0x1047676d0&gt;</div></td></tr><tr><td style="font-weight:bold;vertical-align:top;">wsgi.multiprocess</td><td style="vertical-align:top;">:</td><td><div>False</div></td></tr><tr><td style="font-weight:bold;vertical-align:top;">wsgi.multithread</td><td style="vertical-align:top;">:</td><td><div>True</div></td></tr><tr><td style="font-weight:bold;vertical-align:top;">wsgi.run_once</td><td style="vertical-align:top;">:</td><td><div>False</div></td></tr><tr><td style="font-weight:bold;vertical-align:top;">wsgi.url_scheme</td><td style="vertical-align:top;">:</td><td><div>http</div></td></tr><tr><td style="font-weight:bold;vertical-align:top;">wsgi.version</td><td style="vertical-align:top;">:</td><td><div><table><tr><td><div>1</div></td></tr><tr><td><div>0</div></td></tr></table></div></td></tr><tr><td style="font-weight:bold;vertical-align:top;">wsgi_errors</td><td style="vertical-align:top;">:</td><td><div>&lt;open file &#x27;&lt;stderr&gt;&#x27;, mode &#x27;w&#x27; at 0x103977270&gt;</div></td></tr><tr><td style="font-weight:bold;vertical-align:top;">wsgi_file_wrapper</td><td style="vertical-align:top;">:</td><td><div>&lt;class wsgiref.util.FileWrapper at 0x104904328&gt;</div></td></tr><tr><td style="font-weight:bold;vertical-align:top;">wsgi_input</td><td style="vertical-align:top;">:</td><td><div>&lt;socket._fileobject object at 0x1047676d0&gt;</div></td></tr><tr><td style="font-weight:bold;vertical-align:top;">wsgi_multiprocess</td><td style="vertical-align:top;">:</td><td><div>False</div></td></tr><tr><td style="font-weight:bold;vertical-align:top;">wsgi_multithread</td><td style="vertical-align:top;">:</td><td><div>True</div></td></tr><tr><td style="font-weight:bold;vertical-align:top;">wsgi_run_once</td><td style="vertical-align:top;">:</td><td><div>False</div></td></tr><tr><td style="font-weight:bold;vertical-align:top;">wsgi_url_scheme</td><td style="vertical-align:top;">:</td><td><div>http</div></td></tr><tr><td style="font-weight:bold;vertical-align:top;">wsgi_version</td><td style="vertical-align:top;">:</td><td><div><table><tr><td><div>1</div></td></tr><tr><td><div>0</div></td></tr></table></div></td></tr></table></div></td></tr><tr><td style="font-weight:bold;vertical-align:top;">extension</td><td style="vertical-align:top;">:</td><td><div>html</div></td></tr><tr><td style="font-weight:bold;vertical-align:top;">folder</td><td style="vertical-align:top;">:</td><td><div>/Users/JoaoBtte/Documents/python/Hello/applications/admin/</div></td></tr><tr><td style="font-weight:bold;vertical-align:top;">function</td><td style="vertical-align:top;">:</td><td><div>callback</div></td></tr><tr><td style="font-weight:bold;vertical-align:top;">global_settings</td><td style="vertical-align:top;">:</td><td><div><table><tr><td style="font-weight:bold;vertical-align:top;">app_folders</td><td style="vertical-align:top;">:</td><td><div>set([&#x27;/Users/JoaoBtte/Documents/python/Hello/applications/admin/&#x27;, &#x27;/Users/JoaoBtte/Documents/python/Hello/applications/welcome/&#x27;, &#x27;/Users/JoaoBtte/Documents/python/Hello/applications/Cifra/&#x27;])</div></td></tr><tr><td style="font-weight:bold;vertical-align:top;">applications_parent</td><td style="vertical-align:top;">:</td><td><div>/Users/JoaoBtte/Documents/python/Hello</div></td></tr><tr><td style="font-weight:bold;vertical-align:top;">cmd_args</td><td style="vertical-align:top;">:</td><td><div><table></table></div></td></tr><tr><td style="font-weight:bold;vertical-align:top;">cmd_options</td><td style="vertical-align:top;">:</td><td><div>&lt;Values at 0x1044cda28: {&#x27;verbose&#x27;: False, &#x27;ip&#x27;: &#x27;127.0.0.1&#x27;, &#x27;debuglevel&#x27;: 30, &#x27;with_scheduler&#x27;: False, &#x27;ips&#x27;: [&#x27;fe80::22c9:d0ff:fed9:645f%en1&#x27;, &#x27;192.168.0.22&#x27;], &#x27;shutdown_timeout&#x27;: 5, &#x27;taskbar&#x27;: False, &#x27;with_coverage&#x27;: False, &#x27;port&#x27;: 8000, &#x27;maxthreads&#x27;: None, &#x27;softcron&#x27;: False, &#x27;server_name&#x27;: &#x27;MacBook-Pro-de-Joao.local&#x27;, &#x27;bpython&#x27;: False, &#x27;nogui&#x27;: False, &#x27;pid_filename&#x27;: &#x27;httpserver.pid&#x27;, &#x27;extcron&#x27;: False, &#x27;runcron&#x27;: False, &#x27;run_system_tests&#x27;: False, &#x27;test&#x27;: None, &#x27;folder&#x27;: &#x27;/Users/JoaoBtte/Documents/python/Hello&#x27;, &#x27;config&#x27;: &#x27;&#x27;, &#x27;minthreads&#x27;: None, &#x27;winservice&#x27;: &#x27;&#x27;, &#x27;shell&#x27;: None, &#x27;run&#x27;: &#x27;&#x27;, &#x27;log_filename&#x27;: &#x27;httpserver.log&#x27;, &#x27;profiler_dir&#x27;: None, &#x27;args&#x27;: [&#x27;&#x27;], &#x27;socket_timeout&#x27;: 5, &#x27;ssl_ca_certificate&#x27;: None, &#x27;scheduler&#x27;: None, &#x27;interfaces&#x27;: None, &#x27;ssl_private_key&#x27;: &#x27;&#x27;, &#x27;scheduler_groups&#x27;: None, &#x27;password&#x27;: &#x27;&lt;ask&gt;&#x27;, &#x27;request_queue_size&#x27;: 5, &#x27;ssl_certificate&#x27;: &#x27;&#x27;, &#x27;cronjob&#x27;: False, &#x27;numthreads&#x27;: None, &#x27;quiet&#x27;: False, &#x27;import_models&#x27;: False, &#x27;timeout&#x27;: 10, &#x27;plain&#x27;: False, &#x27;nobanner&#x27;: False}&gt;</div></td></tr><tr><td style="font-weight:bold;vertical-align:top;">db_sessions</td><td style="vertical-align:top;">:</td><td><div>set([])</div></td></tr><tr><td style="font-weight:bold;vertical-align:top;">debugging</td><td style="vertical-align:top;">:</td><td><div>True</div></td></tr><tr><td style="font-weight:bold;vertical-align:top;">gluon_parent</td><td style="vertical-align:top;">:</td><td><div>/Users/JoaoBtte/Documents/python/Hello</div></td></tr><tr><td style="font-weight:bold;vertical-align:top;">is_jython</td><td style="vertical-align:top;">:</td><td><div>False</div></td></tr><tr><td style="font-weight:bold;vertical-align:top;">is_pypy</td><td style="vertical-align:top;">:</td><td><div>False</div></td></tr><tr><td style="font-weight:bold;vertical-align:top;">is_source</td><td style="vertical-align:top;">:</td><td><div>True</div></td></tr><tr><td style="font-weight:bold;vertical-align:top;">local_hosts</td><td style="vertical-align:top;">:</td><td><div><table><tr><td><div>fe80::22c9:d0ff:fed9:645f%en1</div></td></tr><tr><td><div>::ffff:127.0.0.1</div></td></tr><tr><td><div>::1</div></td></tr><tr><td><div>192.168.0.22</div></td></tr><tr><td><div>MacBook-Pro-de-Joao.local</div></td></tr><tr><td><div>127.0.0.1</div></td></tr></table></div></td></tr><tr><td style="font-weight:bold;vertical-align:top;">web2py_version</td><td style="vertical-align:top;">:</td><td><div>2.6.2-stable+timestamp.2013.09.13.22.53.04</div></td></tr></table></div></td></tr><tr><td style="font-weight:bold;vertical-align:top;">is_https</td><td style="vertical-align:top;">:</td><td><div>False</div></td></tr><tr><td style="font-weight:bold;vertical-align:top;">is_local</td><td style="vertical-align:top;">:</td><td><div>True</div></td></tr><tr><td style="font-weight:bold;vertical-align:top;">is_restful</td><td style="vertical-align:top;">:</td><td><div>False</div></td></tr><tr><td style="font-weight:bold;vertical-align:top;">now</td><td style="vertical-align:top;">:</td><td><div>datetime.datetime(2013, 9, 19, 14, 13, 56, 701272)</div></td></tr><tr><td style="font-weight:bold;vertical-align:top;">raw_args</td><td style="vertical-align:top;">:</td><td><div>Cifra</div></td></tr><tr><td style="font-weight:bold;vertical-align:top;">raw_extension</td><td style="vertical-align:top;">:</td><td><div>None</div></td></tr><tr><td style="font-weight:bold;vertical-align:top;">url</td><td style="vertical-align:top;">:</td><td><div>/admin/shell/callback/Cifra</div></td></tr><tr><td style="font-weight:bold;vertical-align:top;">utcnow</td><td style="vertical-align:top;">:</td><td><div>datetime.datetime(2013, 9, 19, 17, 13, 56, 701282)</div></td></tr><tr><td style="font-weight:bold;vertical-align:top;">uuid</td><td style="vertical-align:top;">:</td><td><div>admin/127.0.0.1.2013-09-19.14-13-56.3a34eba9-0f75-4db0-80e9-d4b834f01c2d</div></td></tr><tr><td style="font-weight:bold;vertical-align:top;">wsgi</td><td style="vertical-align:top;">:</td><td><div>&lt;gluon.main.LazyWSGI object at 0x104ba0c10&gt;</div></td></tr></table></div>'
tRp58
sS'frames'
p59
(lp60
(dp61
S'file'
p62
S'/Users/JoaoBtte/Documents/python/Hello/gluon/restricted.py'
p63
sS'dump'
p64
(dp65
S'environment'
p66
S"{'A': <class 'gluon.html.A'>, 'ALLOW_TOGGLE': 'true', 'ANY_OF': <class 'gluon.validators.ANY_OF'>, 'A_button': <function A_button>, 'B': <class 'gluon.html.B'>, 'BEAUTIFY': <class 'gluon.html.BEAUTIFY'>, 'BODY': <class 'gluon.html.BODY'>, 'BR': <class 'gluon.html.BR'>, 'BUTTON': <class 'gluon.html.BUTTON'>, 'CAT': <class 'gluon.html.CAT'>, ...}"
p67
sS'ccode'
p68
S'<code object <module> at 0x1092a7ab0, file "/Use...applications/admin/controllers/shell.py", line 1>'
p69
ssS'lnum'
p70
I217
sS'lines'
p71
(dp72
I212
S'    try:'
p73
sI213
S'        if isinstance(code, types.CodeType):'
p74
sI214
S'            ccode = code'
p75
sI215
S'        else:'
p76
sI216
S'            ccode = compile2(code, layer)'
p77
sI217
S'        exec ccode in environment'
p78
sI218
S'    except HTTP:'
p79
sI219
S'        raise'
p80
sI220
S'    except RestrictedError:'
p81
sI221
S'        # do not encapsulate (obfuscate) the original RestrictedError'
p82
ssS'call'
p83
S'(code="import sys\\nimport cStringIO\\nimport gluon.contrib...done\'\\n\\nresponse._vars=response._caller(callback)\\n", environment={\'A\': <class \'gluon.html.A\'>, \'ALLOW_TOGGLE\': \'true\', \'ANY_OF\': <class \'gluon.validators.ANY_OF\'>, \'A_button\': <function A_button>, \'B\': <class \'gluon.html.B\'>, \'BEAUTIFY\': <class \'gluon.html.BEAUTIFY\'>, \'BODY\': <class \'gluon.html.BODY\'>, \'BR\': <class \'gluon.html.BR\'>, \'BUTTON\': <class \'gluon.html.BUTTON\'>, \'CAT\': <class \'gluon.html.CAT\'>, ...}, layer=\'/Users/JoaoBtte/Documents/python/Hello/applications/admin/controllers/shell.py\')'
p84
sS'func'
p85
S'restricted'
p86
sa(dp87
g62
S'/Users/JoaoBtte/Documents/python/Hello/applications/admin/controllers/shell.py'
p88
sg64
(dp89
sg70
I52
sg71
(dp90
I41
S'    #output = PRE(output)'
p91
sI42
S"    #return TABLE(TR('In[%i]:'%k,PRE(command)),TR('Out[%i]:'%k,output))"
p92
sI43
S"    return 'In [%i] : %s%s\\n' % (k + 1, command, output)"
p93
sI44
S''
sI45
S''
sI46
S'def reset():'
p94
sI47
S"    app = request.args(0) or 'admin'"
p95
sI48
S"    session['commands:' + app] = []"
p96
sI49
S"    session['history:' + app] = gluon.contrib.shell.History()"
p97
sI50
S"    return 'done'"
p98
ssg83
S'()'
p99
sg85
S'<module>'
p100
sa(dp101
g62
S'/Users/JoaoBtte/Documents/python/Hello/gluon/globals.py'
p102
sg64
(dp103
S'self'
p104
S'undefined'
p105
sS'f'
S'<function callback>'
p106
ssg70
I378
sg71
(dp107
I373
S'        self.menu = []             # used by the default view layout'
p108
sI374
S'        self.files = []            # used by web2py_ajax.html'
p109
sI375
S'        self.generic_patterns = []  # patterns to allow generic views'
p110
sI376
S"        self.delimiters = ('{{', '}}')"
p111
sI377
S'        self._vars = None'
p112
sI378
S'        self._caller = lambda f: f()'
p113
sI379
S'        self._view_environment = None'
p114
sI380
S'        self._custom_commit = None'
p115
sI381
S'        self._custom_rollback = None'
p116
sI382
S''
ssg83
S'(f=<function callback>)'
p117
sg85
S'<lambda>'
p118
sa(dp119
g62
S'/Users/JoaoBtte/Documents/python/Hello/applications/admin/controllers/shell.py'
p120
sg64
(dp121
S'environ'
p122
S"{'A': <class 'gluon.html.A'>, 'ANY_OF': <class 'gluon.validators.ANY_OF'>, 'Auth': <class 'gluon.tools.Auth'>, 'B': <class 'gluon.html.B'>, 'BEAUTIFY': <class 'gluon.html.BEAUTIFY'>, 'BODY': <class 'gluon.html.BODY'>, 'BR': <class 'gluon.html.BR'>, 'BUTTON': <class 'gluon.html.BUTTON'>, 'CAT': <class 'gluon.html.CAT'>, 'CENTER': <class 'gluon.html.CENTER'>, ...}"
p123
sS'gluon.contrib.shell.run'
p124
S'<function run>'
p125
sS'gluon.contrib'
p126
S"<module 'gluon.contrib' from '/Users/JoaoBtte/Documents/python/Hello/gluon/contrib/__init__.pyc'>"
p127
sS'gluon.contrib.shell'
p128
S"<module 'gluon.contrib.shell' from '/Users/JoaoBtte/Documents/python/Hello/gluon/contrib/shell.pyc'>"
p129
sS'command'
p130
S'\'b = a.split("-")\\n\''
p131
sS'global gluon'
p132
S"<module 'gluon' from '/Users/JoaoBtte/Documents/python/Hello/gluon/__init__.pyc'>"
p133
sS'output'
p134
g105
sS'history'
p135
S'<gluon.contrib.shell.History instance>'
p136
ssg70
I39
sg71
(dp137
I34
S"            command = session['commands:' + app][int(command[1:])]"
p138
sI35
S'        except ValueError:'
p139
sI36
S"            return ''"
p140
sI37
S"    session['commands:' + app].append(command)"
p141
sI38
S'    environ = env(app, True, extra_request=dict(is_https=request.is_https))'
p142
sI39
S'    output = gluon.contrib.shell.run(history, command, environ)'
p143
sI40
S"    k = len(session['commands:' + app]) - 1"
p144
sI41
S'    #output = PRE(output)'
p145
sI42
S"    #return TABLE(TR('In[%i]:'%k,PRE(command)),TR('Out[%i]:'%k,output))"
p146
sI43
S"    return 'In [%i] : %s%s\\n' % (k + 1, command, output)"
p147
ssg83
S'()'
p148
sg85
S'callback'
p149
sa(dp150
g62
S'/Users/JoaoBtte/Documents/python/Hello/gluon/contrib/shell.py'
p151
sg64
(dp152
S'code'
p153
S"'a\\n\\n\\n'"
p154
sS'statement_module.__dict__'
p155
S"{'A': <class 'gluon.html.A'>, 'ANY_OF': <class 'gluon.validators.ANY_OF'>, 'Auth': <class 'gluon.tools.Auth'>, 'B': <class 'gluon.html.B'>, 'BEAUTIFY': <class 'gluon.html.BEAUTIFY'>, 'BODY': <class 'gluon.html.BODY'>, 'BR': <class 'gluon.html.BR'>, 'BUTTON': <class 'gluon.html.BUTTON'>, 'CAT': <class 'gluon.html.CAT'>, 'CENTER': <class 'gluon.html.CENTER'>, ...}"
p156
sS'statement_module'
p157
S"<module '__main__' from 'applications/Cifra/models/menu.py'>"
p158
ssg70
I214
sg71
(dp159
I209
S"        statement_module.__name__ = '__main__'"
p160
sI210
S'        statement_module.__dict__.update(env)'
p161
sI211
S''
sI212
S'        # re-evaluate the unpicklables'
p162
sI213
S'        for code in history.unpicklables:'
p163
sI214
S'            exec code in statement_module.__dict__'
p164
sI215
S''
sI216
S'        # re-initialize the globals'
p165
sI217
S'        for name, val in history.globals_dict().items():'
p166
sI218
S'            try:'
p167
ssg83
S'(history=<gluon.contrib.shell.History instance>, statement=\'b = a.split("-")\\n\\n\\n\', env={\'A\': <class \'gluon.html.A\'>, \'ANY_OF\': <class \'gluon.validators.ANY_OF\'>, \'Auth\': <class \'gluon.tools.Auth\'>, \'B\': <class \'gluon.html.B\'>, \'BEAUTIFY\': <class \'gluon.html.BEAUTIFY\'>, \'BODY\': <class \'gluon.html.BODY\'>, \'BR\': <class \'gluon.html.BR\'>, \'BUTTON\': <class \'gluon.html.BUTTON\'>, \'CAT\': <class \'gluon.html.CAT\'>, \'CENTER\': <class \'gluon.html.CENTER\'>, ...})'
p168
sg85
S'run'
p169
sa(dp170
g62
S'/Users/JoaoBtte/Documents/python/Hello/<string>'
p171
sg64
(dp172
sg70
I1
sg71
(dp173
sg83
S'()'
p174
sg85
g100
sasS'pyver'
p175
S'Python 2.7.2: /usr/bin/python (prefix: /System/Library/Frameworks/Python.framework/Versions/2.7)'
p176
sS'session'
p177
g57
(S's\xe1\x05\x00\x00<div><table><tr><td style="font-weight:bold;vertical-align:top;">authorized</td><td style="vertical-align:top;">:</td><td><div>True</div></td></tr><tr><td style="font-weight:bold;vertical-align:top;">check_version</td><td style="vertical-align:top;">:</td><td><div>True</div></td></tr><tr><td style="font-weight:bold;vertical-align:top;">commands:Cifra</td><td style="vertical-align:top;">:</td><td><div><table><tr><td><div>a = &quot;Duas Medidas - Banda Eva&quot;\n</div></td></tr><tr><td><div>a\n</div></td></tr><tr><td><div>b = a.split(&quot;-&quot;)\n</div></td></tr></table></div></td></tr><tr><td style="font-weight:bold;vertical-align:top;">flash</td><td style="vertical-align:top;">:</td><td><div>None</div></td></tr><tr><td style="font-weight:bold;vertical-align:top;">history:Cifra</td><td style="vertical-align:top;">:</td><td><div>&lt;gluon.contrib.shell.History instance at 0x109258a28&gt;</div></td></tr><tr><td style="font-weight:bold;vertical-align:top;">is_mobile</td><td style="vertical-align:top;">:</td><td><div>auto</div></td></tr><tr><td style="font-weight:bold;vertical-align:top;">last_time</td><td style="vertical-align:top;">:</td><td><div>1379610836.707367</div></td></tr><tr><td style="font-weight:bold;vertical-align:top;">pam_user</td><td style="vertical-align:top;">:</td><td><div>None</div></td></tr><tr><td style="font-weight:bold;vertical-align:top;">token</td><td style="vertical-align:top;">:</td><td><div>f3dc82ed-279a-42c2-8785-67dfad8f5391</div></td></tr></table></div>'
tRp178
sS'etype'
p179
S"<type 'exceptions.NameError'>"
p180
sS'date'
p181
S'Thu Sep 19 14:13:57 2013'
p182
sS'response'
p183
g57
(S'sK\x19\x00\x00<div><table><tr><td style="font-weight:bold;vertical-align:top;">body</td><td style="vertical-align:top;">:</td><td><div>&lt;cStringIO.StringO object at 0x1091ee180&gt;</div></td></tr><tr><td style="font-weight:bold;vertical-align:top;">cookies</td><td style="vertical-align:top;">:</td><td><div><table></table></div></td></tr><tr><td style="font-weight:bold;vertical-align:top;">delimiters</td><td style="vertical-align:top;">:</td><td><div><table><tr><td><div>{{</div></td></tr><tr><td><div>}}</div></td></tr></table></div></td></tr><tr><td style="font-weight:bold;vertical-align:top;">files</td><td style="vertical-align:top;">:</td><td><div><table><tr><td><div>/admin/static/plugin_multiselect/jquery.multi-select.js</div></td></tr><tr><td><div>/admin/static/plugin_multiselect/multi-select.css</div></td></tr><tr><td><div>/admin/static/plugin_multiselect/start.js</div></td></tr></table></div></td></tr><tr><td style="font-weight:bold;vertical-align:top;">flash</td><td style="vertical-align:top;">:</td><td><div></div></td></tr><tr><td style="font-weight:bold;vertical-align:top;">generic_patterns</td><td style="vertical-align:top;">:</td><td><div><table></table></div></td></tr><tr><td style="font-weight:bold;vertical-align:top;">headers</td><td style="vertical-align:top;">:</td><td><div><table><tr><td style="font-weight:bold;vertical-align:top;">X-Powered-By</td><td style="vertical-align:top;">:</td><td><div>web2py</div></td></tr></table></div></td></tr><tr><td style="font-weight:bold;vertical-align:top;">menu</td><td style="vertical-align:top;">:</td><td><div><table><tr><td><div><table><tr><td><div>site</div></td></tr><tr><td><div>False</div></td></tr><tr><td><div>/admin/default/site</div></td></tr></table></div></td></tr><tr><td><div><table><tr><td><div>editar</div></td></tr><tr><td><div>False</div></td></tr><tr><td><div>/admin/default/design/Cifra</div></td></tr></table></div></td></tr><tr><td><div><table><tr><td><div>sobre</div></td></tr><tr><td><div>False</div></td></tr><tr><td><div>/admin/default/about/Cifra</div></td></tr></table></div></td></tr><tr><td><div><table><tr><td><div>erros</div></td></tr><tr><td><div>False</div></td></tr><tr><td><div>/admin/default/errors/Cifra</div></td></tr></table></div></td></tr><tr><td><div><table><tr><td><div>Versioning</div></td></tr><tr><td><div>False</div></td></tr><tr><td><div>/admin/mercurial/commit/Cifra</div></td></tr></table></div></td></tr><tr><td><div><table><tr><td><div>ajuda</div></td></tr><tr><td><div>False</div></td></tr><tr><td><div>http://web2py.com/examples/default/documentation</div></td></tr></table></div></td></tr><tr><td><div><table><tr><td><div>finalizar sess\xc3\xa3o</div></td></tr><tr><td><div>False</div></td></tr><tr><td><div>/admin/default/logout</div></td></tr></table></div></td></tr><tr><td><div><table><tr><td><div>Debug</div></td></tr><tr><td><div>False</div></td></tr><tr><td><div>/admin/debug/interact</div></td></tr></table></div></td></tr></table></div></td></tr><tr><td style="font-weight:bold;vertical-align:top;">meta</td><td style="vertical-align:top;">:</td><td><div><table></table></div></td></tr><tr><td style="font-weight:bold;vertical-align:top;">models_to_run</td><td style="vertical-align:top;">:</td><td><div><table><tr><td><div>^\\w+\\.py$</div></td></tr><tr><td><div>^shell/\\w+\\.py$</div></td></tr><tr><td><div>^shell/callback/\\w+\\.py$</div></td></tr></table></div></td></tr><tr><td style="font-weight:bold;vertical-align:top;">postprocessing</td><td style="vertical-align:top;">:</td><td><div><table></table></div></td></tr><tr><td style="font-weight:bold;vertical-align:top;">session_client</td><td style="vertical-align:top;">:</td><td><div>127.0.0.1</div></td></tr><tr><td style="font-weight:bold;vertical-align:top;">session_cookie_compression_level</td><td style="vertical-align:top;">:</td><td><div>None</div></td></tr><tr><td style="font-weight:bold;vertical-align:top;">session_cookie_expires</td><td style="vertical-align:top;">:</td><td><div>None</div></td></tr><tr><td style="font-weight:bold;vertical-align:top;">session_cookie_key</td><td style="vertical-align:top;">:</td><td><div>None</div></td></tr><tr><td style="font-weight:bold;vertical-align:top;">session_data_name</td><td style="vertical-align:top;">:</td><td><div>session_data_admin</div></td></tr><tr><td style="font-weight:bold;vertical-align:top;">session_file</td><td style="vertical-align:top;">:</td><td><div>&lt;open file &#x27;/Users/JoaoBtte/Documents/python/Hello/applications/admin/sessions/127.0.0.1-4274dca4-1eac-4efb-b963-f405572e84d7&#x27;, mode &#x27;rb+&#x27; at 0x104787c90&gt;</div></td></tr><tr><td style="font-weight:bold;vertical-align:top;">session_filename</td><td style="vertical-align:top;">:</td><td><div>/Users/JoaoBtte/Documents/python/Hello/applications/admin/sessions/127.0.0.1-4274dca4-1eac-4efb-b963-f405572e84d7</div></td></tr><tr><td style="font-weight:bold;vertical-align:top;">session_hash</td><td style="vertical-align:top;">:</td><td><div>8b10e66e3d928b0ebbfef15e7b6f0497</div></td></tr><tr><td style="font-weight:bold;vertical-align:top;">session_id</td><td style="vertical-align:top;">:</td><td><div>127.0.0.1-4274dca4-1eac-4efb-b963-f405572e84d7</div></td></tr><tr><td style="font-weight:bold;vertical-align:top;">session_id_name</td><td style="vertical-align:top;">:</td><td><div>session_id_admin</div></td></tr><tr><td style="font-weight:bold;vertical-align:top;">session_locked</td><td style="vertical-align:top;">:</td><td><div>True</div></td></tr><tr><td style="font-weight:bold;vertical-align:top;">session_masterapp</td><td style="vertical-align:top;">:</td><td><div>admin</div></td></tr><tr><td style="font-weight:bold;vertical-align:top;">session_new</td><td style="vertical-align:top;">:</td><td><div>False</div></td></tr><tr><td style="font-weight:bold;vertical-align:top;">session_storage_type</td><td style="vertical-align:top;">:</td><td><div>file</div></td></tr><tr><td style="font-weight:bold;vertical-align:top;">status</td><td style="vertical-align:top;">:</td><td><div>200</div></td></tr><tr><td style="font-weight:bold;vertical-align:top;">subtitle</td><td style="vertical-align:top;">:</td><td><div>admin</div></td></tr><tr><td style="font-weight:bold;vertical-align:top;">title</td><td style="vertical-align:top;">:</td><td><div>callback Cifra</div></td></tr><tr><td style="font-weight:bold;vertical-align:top;">view</td><td style="vertical-align:top;">:</td><td><div>shell/callback.html</div></td></tr></table></div>'
tRp184
sS'locals'
p185
(dp186
S'OBJECT'
p187
S"<class 'gluon.html.OBJECT'>"
p188
sS'SQLDB'
p189
S"<class 'gluon.dal.DAL'>"
p190
sg177
S'<Storage {}>'
p191
sS'LINK'
p192
S"<class 'gluon.html.LINK'>"
p193
sS'BR'
p194
S"<class 'gluon.html.BR'>"
p195
sS'local_import'
p196
S'<function <lambda>>'
p197
sS'OPTGROUP'
p198
S"<class 'gluon.html.OPTGROUP'>"
p199
sS'__package__'
p200
S'None'
p201
sS'PRE'
p202
S"<class 'gluon.html.PRE'>"
p203
sS'IS_INT_IN_RANGE'
p204
S"<class 'gluon.validators.IS_INT_IN_RANGE'>"
p205
sS'IS_LOWER'
p206
S"<class 'gluon.validators.IS_LOWER'>"
p207
sS'IS_STRONG'
p208
S"<class 'gluon.validators.IS_STRONG'>"
p209
sS'cache'
p210
S'<gluon.cache.Cache object>'
p211
sS'IS_IN_DB'
p212
S"<class 'gluon.validators.IS_IN_DB'>"
p213
sS'TAG'
p214
S'<gluon.html.__TAG__ object>'
p215
sS'SQLField'
p216
S"<class 'gluon.dal.Field'>"
p217
sS'BODY'
p218
S"<class 'gluon.html.BODY'>"
p219
sS'IS_DATE_IN_RANGE'
p220
S"<class 'gluon.validators.IS_DATE_IN_RANGE'>"
p221
sS'TH'
p222
S"<class 'gluon.html.TH'>"
p223
sS'URL'
p224
S'<function URL>'
p225
sS'__file__'
p226
S"'applications/Cifra/models/menu.py'"
p227
sS'db'
p228
S'<DAL uri="sqlite://storage.sqlite">'
p229
sS'auth'
p230
S'<gluon.tools.Auth object>'
p231
sS'P'
S"<class 'gluon.html.P'>"
p232
sS'TFOOT'
p233
S"<class 'gluon.html.TFOOT'>"
p234
sS'XHTML'
p235
S"<class 'gluon.html.XHTML'>"
p236
sS'ON'
p237
S'True'
p238
sS'OL'
p239
S"<class 'gluon.html.OL'>"
p240
sS'TEXTAREA'
p241
S"<class 'gluon.html.TEXTAREA'>"
p242
sS'MENU'
p243
S"<class 'gluon.html.MENU'>"
p244
sS'EM'
p245
S"<class 'gluon.html.EM'>"
p246
sS'CODE'
p247
S"<class 'gluon.html.CODE'>"
p248
sS'HTTP'
p249
S"<class 'gluon.http.HTTP'>"
p250
sS'HR'
p251
S"<class 'gluon.html.HR'>"
p252
sS'IS_DATETIME'
p253
S"<class 'gluon.validators.IS_DATETIME'>"
p254
sS'HEAD'
p255
S"<class 'gluon.html.HEAD'>"
p256
sS'LABEL'
p257
S"<class 'gluon.html.LABEL'>"
p258
sS'CLEANUP'
p259
S"<class 'gluon.validators.CLEANUP'>"
p260
sS'SELECT'
p261
S"<class 'gluon.html.SELECT'>"
p262
sS'CENTER'
p263
S"<class 'gluon.html.CENTER'>"
p264
sS'Auth'
p265
S"<class 'gluon.tools.Auth'>"
p266
sS'DEVELOPMENT_MENU'
p267
g238
sS'__builtins__'
p268
S"{'ArithmeticError': <type 'exceptions.ArithmeticError'>, 'AssertionError': <type 'exceptions.AssertionError'>, 'AttributeError': <type 'exceptions.AttributeError'>, 'BaseException': <type 'exceptions.BaseException'>, 'BufferError': <type 'exceptions.BufferError'>, 'BytesWarning': <type 'exceptions.BytesWarning'>, 'DeprecationWarning': <type 'exceptions.DeprecationWarning'>, 'EOFError': <type 'exceptions.EOFError'>, 'Ellipsis': Ellipsis, 'EnvironmentError': <type 'exceptions.EnvironmentError'>, ...}"
p269
sS'HTML'
p270
S"<class 'gluon.html.HTML'>"
p271
sS'SQLFORM'
p272
S"<class 'gluon.sqlhtml.SQLFORM'>"
p273
sS'LOAD'
p274
S'<function LOAD>'
p275
sS'redirect'
p276
S'<function redirect>'
p277
sS'FIELDSET'
p278
S"<class 'gluon.html.FIELDSET'>"
p279
sS'IS_EQUAL_TO'
p280
S"<class 'gluon.validators.IS_EQUAL_TO'>"
p281
sS'embed64'
p282
S'<function embed64>'
p283
sS'IS_LIST_OF'
p284
S"<class 'gluon.validators.IS_LIST_OF'>"
p285
sS'__name__'
p286
S"'__main__'"
p287
sS'EMBED'
p288
S"<class 'gluon.html.EMBED'>"
p289
sS'_'
S'<function _>'
p290
sS'FORM'
p291
S"<class 'gluon.html.FORM'>"
p292
sS'H2'
p293
S"<class 'gluon.html.H2'>"
p294
sS'H3'
p295
S"<class 'gluon.html.H3'>"
p296
sS'BUTTON'
p297
S"<class 'gluon.html.BUTTON'>"
p298
sS'H1'
p299
S"<class 'gluon.html.H1'>"
p300
sS'H6'
p301
S"<class 'gluon.html.H6'>"
p302
sS'H4'
p303
S"<class 'gluon.html.H4'>"
p304
sS'H5'
p305
S"<class 'gluon.html.H5'>"
p306
sS'UL'
p307
S"<class 'gluon.html.UL'>"
p308
sS'IS_UPPER'
p309
S"<class 'gluon.validators.IS_UPPER'>"
p310
sS'xmlescape'
p311
S'<function xmlescape>'
p312
sS'IS_TIME'
p313
S"<class 'gluon.validators.IS_TIME'>"
p314
sS'OPTION'
p315
S"<class 'gluon.html.OPTION'>"
p316
sS'TITLE'
p317
S"<class 'gluon.html.TITLE'>"
p318
sS'CRYPT'
p319
S"<class 'gluon.validators.CRYPT'>"
p320
sS'IS_EMPTY_OR'
p321
S"<class 'gluon.validators.IS_EMPTY_OR'>"
p322
sS'MARKMIN'
p323
S"<class 'gluon.html.MARKMIN'>"
p324
sS'INPUT'
p325
S"<class 'gluon.html.INPUT'>"
p326
sS'STRONG'
p327
S"<class 'gluon.html.STRONG'>"
p328
sS'COL'
p329
S"<class 'gluon.html.COL'>"
p330
sS'SCRIPT'
p331
S"<class 'gluon.html.SCRIPT'>"
p332
sS'TABLE'
p333
S"<class 'gluon.html.TABLE'>"
p334
sg48
S'None'
p335
sS'IS_LENGTH'
p336
S"<class 'gluon.validators.IS_LENGTH'>"
p337
sS'IS_IPV6'
p338
S"<class 'gluon.validators.IS_IPV6'>"
p339
sS'XML'
p340
S"<class 'gluon.html.XML'>"
p341
sS'B'
S"<class 'gluon.html.B'>"
p342
sS'IMG'
p343
S"<class 'gluon.html.IMG'>"
p344
sS'SQLTABLE'
p345
S"<class 'gluon.sqlhtml.SQLTABLE'>"
p346
sS'IS_MATCH'
p347
S"<class 'gluon.validators.IS_MATCH'>"
p348
sS'IS_ALPHANUMERIC'
p349
S"<class 'gluon.validators.IS_ALPHANUMERIC'>"
p350
sS'SPAN'
p351
S"<class 'gluon.html.SPAN'>"
p352
sS'IS_JSON'
p353
S"<class 'gluon.validators.IS_JSON'>"
p354
sS'IS_IPADDRESS'
p355
S"<class 'gluon.validators.IS_IPADDRESS'>"
p356
sS'IS_SLUG'
p357
S"<class 'gluon.validators.IS_SLUG'>"
p358
sS'IS_IPV4'
p359
S"<class 'gluon.validators.IS_IPV4'>"
p360
sS'BEAUTIFY'
p361
S"<class 'gluon.html.BEAUTIFY'>"
p362
sS'META'
p363
S"<class 'gluon.html.META'>"
p364
sS'IS_DATE'
p365
S"<class 'gluon.validators.IS_DATE'>"
p366
sS'IS_EMAIL'
p367
S"<class 'gluon.validators.IS_EMAIL'>"
p368
sS'IS_NOT_EMPTY'
p369
S"<class 'gluon.validators.IS_NOT_EMPTY'>"
p370
sS'IS_FLOAT_IN_RANGE'
p371
S"<class 'gluon.validators.IS_FLOAT_IN_RANGE'>"
p372
sS'TBODY'
p373
S"<class 'gluon.html.TBODY'>"
p374
sS'CAT'
p375
S"<class 'gluon.html.CAT'>"
p376
sS'Field'
p377
S"<class 'gluon.dal.Field'>"
p378
sS'DIV'
p379
S"<class 'gluon.html.DIV'>"
p380
sS'LEGEND'
p381
S"<class 'gluon.html.LEGEND'>"
p382
sS'COLGROUP'
p383
S"<class 'gluon.html.COLGROUP'>"
p384
sS'DAL'
p385
S"<class 'gluon.dal.DAL'>"
p386
sS'TT'
p387
S"<class 'gluon.html.TT'>"
p388
sS'TR'
p389
S"<class 'gluon.html.TR'>"
p390
sS'LI'
p391
S"<class 'gluon.html.LI'>"
p392
sS'IFRAME'
p393
S"<class 'gluon.html.IFRAME'>"
p394
sS'TD'
p395
S"<class 'gluon.html.TD'>"
p396
sS'IS_URL'
p397
S"<class 'gluon.validators.IS_URL'>"
p398
sS'A'
S"<class 'gluon.html.A'>"
p399
sS'STYLE'
p400
S"<class 'gluon.html.STYLE'>"
p401
sS'IS_DATETIME_IN_RANGE'
p402
S"<class 'gluon.validators.IS_DATETIME_IN_RANGE'>"
p403
sS'IS_IMAGE'
p404
S"<class 'gluon.validators.IS_IMAGE'>"
p405
sS'I'
S"<class 'gluon.html.I'>"
p406
sS'IS_NOT_IN_DB'
p407
S"<class 'gluon.validators.IS_NOT_IN_DB'>"
p408
sg183
S"<Storage {'body': <cStringIO.StringO object at 0...> at 0x10483be60>, 'view': 'default/index.html'}>"
p409
sS'THEAD'
p410
S"<class 'gluon.html.THEAD'>"
p411
sS'ANY_OF'
p412
S"<class 'gluon.validators.ANY_OF'>"
p413
sS'IS_NULL_OR'
p414
S"<class 'gluon.validators.IS_EMPTY_OR'>"
p415
sg56
S"<Storage {'_vars': <Storage {}>, 'function': 'in...imestamp.2013.09.13.22.53.04', 'cmd_args': []}>}>"
p416
sS'IS_EXPR'
p417
S"<class 'gluon.validators.IS_EXPR'>"
p418
sS'T'
S'<gluon.languages.translator object>'
p419
sS'IS_IN_SET'
p420
S"<class 'gluon.validators.IS_IN_SET'>"
p421
sS'IS_UPLOAD_FILENAME'
p422
S"<class 'gluon.validators.IS_UPLOAD_FILENAME'>"
p423
sS'IS_DECIMAL_IN_RANGE'
p424
S"<class 'gluon.validators.IS_DECIMAL_IN_RANGE'>"
p425
sssS'traceback'
p426
S'Traceback (most recent call last):\n  File "/Users/JoaoBtte/Documents/python/Hello/gluon/restricted.py", line 217, in restricted\n    exec ccode in environment\n  File "/Users/JoaoBtte/Documents/python/Hello/applications/admin/controllers/shell.py", line 52, in <module>\n  File "/Users/JoaoBtte/Documents/python/Hello/gluon/globals.py", line 378, in <lambda>\n    self._caller = lambda f: f()\n  File "/Users/JoaoBtte/Documents/python/Hello/applications/admin/controllers/shell.py", line 39, in callback\n    output = gluon.contrib.shell.run(history, command, environ)\n  File "/Users/JoaoBtte/Documents/python/Hello/gluon/contrib/shell.py", line 214, in run\n    exec code in statement_module.__dict__\n  File "<string>", line 1, in <module>\nNameError: name \'a\' is not defined\n'
p427
s.